
./router:     file format elf64-x86-64


Disassembly of section .init:

0000000000400fd8 <_init>:
  400fd8:	48 83 ec 08          	sub    $0x8,%rsp
  400fdc:	48 8b 05 15 50 20 00 	mov    0x205015(%rip),%rax        # 605ff8 <_DYNAMIC+0x1e0>
  400fe3:	48 85 c0             	test   %rax,%rax
  400fe6:	74 05                	je     400fed <_init+0x15>
  400fe8:	e8 23 03 00 00       	callq  401310 <socket@plt+0x10>
  400fed:	48 83 c4 08          	add    $0x8,%rsp
  400ff1:	c3                   	retq   

Disassembly of section .plt:

0000000000401000 <free@plt-0x10>:
  401000:	ff 35 02 50 20 00    	pushq  0x205002(%rip)        # 606008 <_GLOBAL_OFFSET_TABLE_+0x8>
  401006:	ff 25 04 50 20 00    	jmpq   *0x205004(%rip)        # 606010 <_GLOBAL_OFFSET_TABLE_+0x10>
  40100c:	0f 1f 40 00          	nopl   0x0(%rax)

0000000000401010 <free@plt>:
  401010:	ff 25 02 50 20 00    	jmpq   *0x205002(%rip)        # 606018 <_GLOBAL_OFFSET_TABLE_+0x18>
  401016:	68 00 00 00 00       	pushq  $0x0
  40101b:	e9 e0 ff ff ff       	jmpq   401000 <_init+0x28>

0000000000401020 <recv@plt>:
  401020:	ff 25 fa 4f 20 00    	jmpq   *0x204ffa(%rip)        # 606020 <_GLOBAL_OFFSET_TABLE_+0x20>
  401026:	68 01 00 00 00       	pushq  $0x1
  40102b:	e9 d0 ff ff ff       	jmpq   401000 <_init+0x28>

0000000000401030 <pthread_create@plt>:
  401030:	ff 25 f2 4f 20 00    	jmpq   *0x204ff2(%rip)        # 606028 <_GLOBAL_OFFSET_TABLE_+0x28>
  401036:	68 02 00 00 00       	pushq  $0x2
  40103b:	e9 c0 ff ff ff       	jmpq   401000 <_init+0x28>

0000000000401040 <__errno_location@plt>:
  401040:	ff 25 ea 4f 20 00    	jmpq   *0x204fea(%rip)        # 606030 <_GLOBAL_OFFSET_TABLE_+0x30>
  401046:	68 03 00 00 00       	pushq  $0x3
  40104b:	e9 b0 ff ff ff       	jmpq   401000 <_init+0x28>

0000000000401050 <strcpy@plt>:
  401050:	ff 25 e2 4f 20 00    	jmpq   *0x204fe2(%rip)        # 606038 <_GLOBAL_OFFSET_TABLE_+0x38>
  401056:	68 04 00 00 00       	pushq  $0x4
  40105b:	e9 a0 ff ff ff       	jmpq   401000 <_init+0x28>

0000000000401060 <puts@plt>:
  401060:	ff 25 da 4f 20 00    	jmpq   *0x204fda(%rip)        # 606040 <_GLOBAL_OFFSET_TABLE_+0x40>
  401066:	68 05 00 00 00       	pushq  $0x5
  40106b:	e9 90 ff ff ff       	jmpq   401000 <_init+0x28>

0000000000401070 <pthread_kill@plt>:
  401070:	ff 25 d2 4f 20 00    	jmpq   *0x204fd2(%rip)        # 606048 <_GLOBAL_OFFSET_TABLE_+0x48>
  401076:	68 06 00 00 00       	pushq  $0x6
  40107b:	e9 80 ff ff ff       	jmpq   401000 <_init+0x28>

0000000000401080 <inet_ntoa@plt>:
  401080:	ff 25 ca 4f 20 00    	jmpq   *0x204fca(%rip)        # 606050 <_GLOBAL_OFFSET_TABLE_+0x50>
  401086:	68 07 00 00 00       	pushq  $0x7
  40108b:	e9 70 ff ff ff       	jmpq   401000 <_init+0x28>

0000000000401090 <strlen@plt>:
  401090:	ff 25 c2 4f 20 00    	jmpq   *0x204fc2(%rip)        # 606058 <_GLOBAL_OFFSET_TABLE_+0x58>
  401096:	68 08 00 00 00       	pushq  $0x8
  40109b:	e9 60 ff ff ff       	jmpq   401000 <_init+0x28>

00000000004010a0 <__stack_chk_fail@plt>:
  4010a0:	ff 25 ba 4f 20 00    	jmpq   *0x204fba(%rip)        # 606060 <_GLOBAL_OFFSET_TABLE_+0x60>
  4010a6:	68 09 00 00 00       	pushq  $0x9
  4010ab:	e9 50 ff ff ff       	jmpq   401000 <_init+0x28>

00000000004010b0 <getuid@plt>:
  4010b0:	ff 25 b2 4f 20 00    	jmpq   *0x204fb2(%rip)        # 606068 <_GLOBAL_OFFSET_TABLE_+0x68>
  4010b6:	68 0a 00 00 00       	pushq  $0xa
  4010bb:	e9 40 ff ff ff       	jmpq   401000 <_init+0x28>

00000000004010c0 <htons@plt>:
  4010c0:	ff 25 aa 4f 20 00    	jmpq   *0x204faa(%rip)        # 606070 <_GLOBAL_OFFSET_TABLE_+0x70>
  4010c6:	68 0b 00 00 00       	pushq  $0xb
  4010cb:	e9 30 ff ff ff       	jmpq   401000 <_init+0x28>

00000000004010d0 <send@plt>:
  4010d0:	ff 25 a2 4f 20 00    	jmpq   *0x204fa2(%rip)        # 606078 <_GLOBAL_OFFSET_TABLE_+0x78>
  4010d6:	68 0c 00 00 00       	pushq  $0xc
  4010db:	e9 20 ff ff ff       	jmpq   401000 <_init+0x28>

00000000004010e0 <printf@plt>:
  4010e0:	ff 25 9a 4f 20 00    	jmpq   *0x204f9a(%rip)        # 606080 <_GLOBAL_OFFSET_TABLE_+0x80>
  4010e6:	68 0d 00 00 00       	pushq  $0xd
  4010eb:	e9 10 ff ff ff       	jmpq   401000 <_init+0x28>

00000000004010f0 <__assert_fail@plt>:
  4010f0:	ff 25 92 4f 20 00    	jmpq   *0x204f92(%rip)        # 606088 <_GLOBAL_OFFSET_TABLE_+0x88>
  4010f6:	68 0e 00 00 00       	pushq  $0xe
  4010fb:	e9 00 ff ff ff       	jmpq   401000 <_init+0x28>

0000000000401100 <htonl@plt>:
  401100:	ff 25 8a 4f 20 00    	jmpq   *0x204f8a(%rip)        # 606090 <_GLOBAL_OFFSET_TABLE_+0x90>
  401106:	68 0f 00 00 00       	pushq  $0xf
  40110b:	e9 f0 fe ff ff       	jmpq   401000 <_init+0x28>

0000000000401110 <memset@plt>:
  401110:	ff 25 82 4f 20 00    	jmpq   *0x204f82(%rip)        # 606098 <_GLOBAL_OFFSET_TABLE_+0x98>
  401116:	68 10 00 00 00       	pushq  $0x10
  40111b:	e9 e0 fe ff ff       	jmpq   401000 <_init+0x28>

0000000000401120 <geteuid@plt>:
  401120:	ff 25 7a 4f 20 00    	jmpq   *0x204f7a(%rip)        # 6060a0 <_GLOBAL_OFFSET_TABLE_+0xa0>
  401126:	68 11 00 00 00       	pushq  $0x11
  40112b:	e9 d0 fe ff ff       	jmpq   401000 <_init+0x28>

0000000000401130 <ioctl@plt>:
  401130:	ff 25 72 4f 20 00    	jmpq   *0x204f72(%rip)        # 6060a8 <_GLOBAL_OFFSET_TABLE_+0xa8>
  401136:	68 12 00 00 00       	pushq  $0x12
  40113b:	e9 c0 fe ff ff       	jmpq   401000 <_init+0x28>

0000000000401140 <sendto@plt>:
  401140:	ff 25 6a 4f 20 00    	jmpq   *0x204f6a(%rip)        # 6060b0 <_GLOBAL_OFFSET_TABLE_+0xb0>
  401146:	68 13 00 00 00       	pushq  $0x13
  40114b:	e9 b0 fe ff ff       	jmpq   401000 <_init+0x28>

0000000000401150 <close@plt>:
  401150:	ff 25 62 4f 20 00    	jmpq   *0x204f62(%rip)        # 6060b8 <_GLOBAL_OFFSET_TABLE_+0xb8>
  401156:	68 14 00 00 00       	pushq  $0x14
  40115b:	e9 a0 fe ff ff       	jmpq   401000 <_init+0x28>

0000000000401160 <__libc_start_main@plt>:
  401160:	ff 25 5a 4f 20 00    	jmpq   *0x204f5a(%rip)        # 6060c0 <_GLOBAL_OFFSET_TABLE_+0xc0>
  401166:	68 15 00 00 00       	pushq  $0x15
  40116b:	e9 90 fe ff ff       	jmpq   401000 <_init+0x28>

0000000000401170 <srand@plt>:
  401170:	ff 25 52 4f 20 00    	jmpq   *0x204f52(%rip)        # 6060c8 <_GLOBAL_OFFSET_TABLE_+0xc8>
  401176:	68 16 00 00 00       	pushq  $0x16
  40117b:	e9 80 fe ff ff       	jmpq   401000 <_init+0x28>

0000000000401180 <strcmp@plt>:
  401180:	ff 25 4a 4f 20 00    	jmpq   *0x204f4a(%rip)        # 6060d0 <_GLOBAL_OFFSET_TABLE_+0xd0>
  401186:	68 17 00 00 00       	pushq  $0x17
  40118b:	e9 70 fe ff ff       	jmpq   401000 <_init+0x28>

0000000000401190 <fprintf@plt>:
  401190:	ff 25 42 4f 20 00    	jmpq   *0x204f42(%rip)        # 6060d8 <_GLOBAL_OFFSET_TABLE_+0xd8>
  401196:	68 18 00 00 00       	pushq  $0x18
  40119b:	e9 60 fe ff ff       	jmpq   401000 <_init+0x28>

00000000004011a0 <memcpy@plt>:
  4011a0:	ff 25 3a 4f 20 00    	jmpq   *0x204f3a(%rip)        # 6060e0 <_GLOBAL_OFFSET_TABLE_+0xe0>
  4011a6:	68 19 00 00 00       	pushq  $0x19
  4011ab:	e9 50 fe ff ff       	jmpq   401000 <_init+0x28>

00000000004011b0 <time@plt>:
  4011b0:	ff 25 32 4f 20 00    	jmpq   *0x204f32(%rip)        # 6060e8 <_GLOBAL_OFFSET_TABLE_+0xe8>
  4011b6:	68 1a 00 00 00       	pushq  $0x1a
  4011bb:	e9 40 fe ff ff       	jmpq   401000 <_init+0x28>

00000000004011c0 <pthread_mutex_unlock@plt>:
  4011c0:	ff 25 2a 4f 20 00    	jmpq   *0x204f2a(%rip)        # 6060f0 <_GLOBAL_OFFSET_TABLE_+0xf0>
  4011c6:	68 1b 00 00 00       	pushq  $0x1b
  4011cb:	e9 30 fe ff ff       	jmpq   401000 <_init+0x28>

00000000004011d0 <malloc@plt>:
  4011d0:	ff 25 22 4f 20 00    	jmpq   *0x204f22(%rip)        # 6060f8 <_GLOBAL_OFFSET_TABLE_+0xf8>
  4011d6:	68 1c 00 00 00       	pushq  $0x1c
  4011db:	e9 20 fe ff ff       	jmpq   401000 <_init+0x28>

00000000004011e0 <getifaddrs@plt>:
  4011e0:	ff 25 1a 4f 20 00    	jmpq   *0x204f1a(%rip)        # 606100 <_GLOBAL_OFFSET_TABLE_+0x100>
  4011e6:	68 1d 00 00 00       	pushq  $0x1d
  4011eb:	e9 10 fe ff ff       	jmpq   401000 <_init+0x28>

00000000004011f0 <recvfrom@plt>:
  4011f0:	ff 25 12 4f 20 00    	jmpq   *0x204f12(%rip)        # 606108 <_GLOBAL_OFFSET_TABLE_+0x108>
  4011f6:	68 1e 00 00 00       	pushq  $0x1e
  4011fb:	e9 00 fe ff ff       	jmpq   401000 <_init+0x28>

0000000000401200 <ntohs@plt>:
  401200:	ff 25 0a 4f 20 00    	jmpq   *0x204f0a(%rip)        # 606110 <_GLOBAL_OFFSET_TABLE_+0x110>
  401206:	68 1f 00 00 00       	pushq  $0x1f
  40120b:	e9 f0 fd ff ff       	jmpq   401000 <_init+0x28>

0000000000401210 <freeifaddrs@plt>:
  401210:	ff 25 02 4f 20 00    	jmpq   *0x204f02(%rip)        # 606118 <_GLOBAL_OFFSET_TABLE_+0x118>
  401216:	68 20 00 00 00       	pushq  $0x20
  40121b:	e9 e0 fd ff ff       	jmpq   401000 <_init+0x28>

0000000000401220 <poll@plt>:
  401220:	ff 25 fa 4e 20 00    	jmpq   *0x204efa(%rip)        # 606120 <_GLOBAL_OFFSET_TABLE_+0x120>
  401226:	68 21 00 00 00       	pushq  $0x21
  40122b:	e9 d0 fd ff ff       	jmpq   401000 <_init+0x28>

0000000000401230 <bind@plt>:
  401230:	ff 25 f2 4e 20 00    	jmpq   *0x204ef2(%rip)        # 606128 <_GLOBAL_OFFSET_TABLE_+0x128>
  401236:	68 22 00 00 00       	pushq  $0x22
  40123b:	e9 c0 fd ff ff       	jmpq   401000 <_init+0x28>

0000000000401240 <perror@plt>:
  401240:	ff 25 ea 4e 20 00    	jmpq   *0x204eea(%rip)        # 606130 <_GLOBAL_OFFSET_TABLE_+0x130>
  401246:	68 23 00 00 00       	pushq  $0x23
  40124b:	e9 b0 fd ff ff       	jmpq   401000 <_init+0x28>

0000000000401250 <bzero@plt>:
  401250:	ff 25 e2 4e 20 00    	jmpq   *0x204ee2(%rip)        # 606138 <_GLOBAL_OFFSET_TABLE_+0x138>
  401256:	68 24 00 00 00       	pushq  $0x24
  40125b:	e9 a0 fd ff ff       	jmpq   401000 <_init+0x28>

0000000000401260 <sprintf@plt>:
  401260:	ff 25 da 4e 20 00    	jmpq   *0x204eda(%rip)        # 606140 <_GLOBAL_OFFSET_TABLE_+0x140>
  401266:	68 25 00 00 00       	pushq  $0x25
  40126b:	e9 90 fd ff ff       	jmpq   401000 <_init+0x28>

0000000000401270 <exit@plt>:
  401270:	ff 25 d2 4e 20 00    	jmpq   *0x204ed2(%rip)        # 606148 <_GLOBAL_OFFSET_TABLE_+0x148>
  401276:	68 26 00 00 00       	pushq  $0x26
  40127b:	e9 80 fd ff ff       	jmpq   401000 <_init+0x28>

0000000000401280 <fwrite@plt>:
  401280:	ff 25 ca 4e 20 00    	jmpq   *0x204eca(%rip)        # 606150 <_GLOBAL_OFFSET_TABLE_+0x150>
  401286:	68 27 00 00 00       	pushq  $0x27
  40128b:	e9 70 fd ff ff       	jmpq   401000 <_init+0x28>

0000000000401290 <ntohl@plt>:
  401290:	ff 25 c2 4e 20 00    	jmpq   *0x204ec2(%rip)        # 606158 <_GLOBAL_OFFSET_TABLE_+0x158>
  401296:	68 28 00 00 00       	pushq  $0x28
  40129b:	e9 60 fd ff ff       	jmpq   401000 <_init+0x28>

00000000004012a0 <strerror@plt>:
  4012a0:	ff 25 ba 4e 20 00    	jmpq   *0x204eba(%rip)        # 606160 <_GLOBAL_OFFSET_TABLE_+0x160>
  4012a6:	68 29 00 00 00       	pushq  $0x29
  4012ab:	e9 50 fd ff ff       	jmpq   401000 <_init+0x28>

00000000004012b0 <sleep@plt>:
  4012b0:	ff 25 b2 4e 20 00    	jmpq   *0x204eb2(%rip)        # 606168 <_GLOBAL_OFFSET_TABLE_+0x168>
  4012b6:	68 2a 00 00 00       	pushq  $0x2a
  4012bb:	e9 40 fd ff ff       	jmpq   401000 <_init+0x28>

00000000004012c0 <pthread_mutex_init@plt>:
  4012c0:	ff 25 aa 4e 20 00    	jmpq   *0x204eaa(%rip)        # 606170 <_GLOBAL_OFFSET_TABLE_+0x170>
  4012c6:	68 2b 00 00 00       	pushq  $0x2b
  4012cb:	e9 30 fd ff ff       	jmpq   401000 <_init+0x28>

00000000004012d0 <strstr@plt>:
  4012d0:	ff 25 a2 4e 20 00    	jmpq   *0x204ea2(%rip)        # 606178 <_GLOBAL_OFFSET_TABLE_+0x178>
  4012d6:	68 2c 00 00 00       	pushq  $0x2c
  4012db:	e9 20 fd ff ff       	jmpq   401000 <_init+0x28>

00000000004012e0 <pthread_mutex_lock@plt>:
  4012e0:	ff 25 9a 4e 20 00    	jmpq   *0x204e9a(%rip)        # 606180 <_GLOBAL_OFFSET_TABLE_+0x180>
  4012e6:	68 2d 00 00 00       	pushq  $0x2d
  4012eb:	e9 10 fd ff ff       	jmpq   401000 <_init+0x28>

00000000004012f0 <rand@plt>:
  4012f0:	ff 25 92 4e 20 00    	jmpq   *0x204e92(%rip)        # 606188 <_GLOBAL_OFFSET_TABLE_+0x188>
  4012f6:	68 2e 00 00 00       	pushq  $0x2e
  4012fb:	e9 00 fd ff ff       	jmpq   401000 <_init+0x28>

0000000000401300 <socket@plt>:
  401300:	ff 25 8a 4e 20 00    	jmpq   *0x204e8a(%rip)        # 606190 <_GLOBAL_OFFSET_TABLE_+0x190>
  401306:	68 2f 00 00 00       	pushq  $0x2f
  40130b:	e9 f0 fc ff ff       	jmpq   401000 <_init+0x28>

Disassembly of section .plt.got:

0000000000401310 <.plt.got>:
  401310:	ff 25 e2 4c 20 00    	jmpq   *0x204ce2(%rip)        # 605ff8 <_DYNAMIC+0x1e0>
  401316:	66 90                	xchg   %ax,%ax

Disassembly of section .text:

0000000000401320 <_start>:
  401320:	31 ed                	xor    %ebp,%ebp
  401322:	49 89 d1             	mov    %rdx,%r9
  401325:	5e                   	pop    %rsi
  401326:	48 89 e2             	mov    %rsp,%rdx
  401329:	48 83 e4 f0          	and    $0xfffffffffffffff0,%rsp
  40132d:	50                   	push   %rax
  40132e:	54                   	push   %rsp
  40132f:	49 c7 c0 30 43 40 00 	mov    $0x404330,%r8
  401336:	48 c7 c1 c0 42 40 00 	mov    $0x4042c0,%rcx
  40133d:	48 c7 c7 e4 37 40 00 	mov    $0x4037e4,%rdi
  401344:	e8 17 fe ff ff       	callq  401160 <__libc_start_main@plt>
  401349:	f4                   	hlt    
  40134a:	66 0f 1f 44 00 00    	nopw   0x0(%rax,%rax,1)

0000000000401350 <deregister_tm_clones>:
  401350:	b8 47 62 60 00       	mov    $0x606247,%eax
  401355:	55                   	push   %rbp
  401356:	48 2d 40 62 60 00    	sub    $0x606240,%rax
  40135c:	48 83 f8 0e          	cmp    $0xe,%rax
  401360:	48 89 e5             	mov    %rsp,%rbp
  401363:	76 1b                	jbe    401380 <deregister_tm_clones+0x30>
  401365:	b8 00 00 00 00       	mov    $0x0,%eax
  40136a:	48 85 c0             	test   %rax,%rax
  40136d:	74 11                	je     401380 <deregister_tm_clones+0x30>
  40136f:	5d                   	pop    %rbp
  401370:	bf 40 62 60 00       	mov    $0x606240,%edi
  401375:	ff e0                	jmpq   *%rax
  401377:	66 0f 1f 84 00 00 00 	nopw   0x0(%rax,%rax,1)
  40137e:	00 00 
  401380:	5d                   	pop    %rbp
  401381:	c3                   	retq   
  401382:	0f 1f 40 00          	nopl   0x0(%rax)
  401386:	66 2e 0f 1f 84 00 00 	nopw   %cs:0x0(%rax,%rax,1)
  40138d:	00 00 00 

0000000000401390 <register_tm_clones>:
  401390:	be 40 62 60 00       	mov    $0x606240,%esi
  401395:	55                   	push   %rbp
  401396:	48 81 ee 40 62 60 00 	sub    $0x606240,%rsi
  40139d:	48 c1 fe 03          	sar    $0x3,%rsi
  4013a1:	48 89 e5             	mov    %rsp,%rbp
  4013a4:	48 89 f0             	mov    %rsi,%rax
  4013a7:	48 c1 e8 3f          	shr    $0x3f,%rax
  4013ab:	48 01 c6             	add    %rax,%rsi
  4013ae:	48 d1 fe             	sar    %rsi
  4013b1:	74 15                	je     4013c8 <register_tm_clones+0x38>
  4013b3:	b8 00 00 00 00       	mov    $0x0,%eax
  4013b8:	48 85 c0             	test   %rax,%rax
  4013bb:	74 0b                	je     4013c8 <register_tm_clones+0x38>
  4013bd:	5d                   	pop    %rbp
  4013be:	bf 40 62 60 00       	mov    $0x606240,%edi
  4013c3:	ff e0                	jmpq   *%rax
  4013c5:	0f 1f 00             	nopl   (%rax)
  4013c8:	5d                   	pop    %rbp
  4013c9:	c3                   	retq   
  4013ca:	66 0f 1f 44 00 00    	nopw   0x0(%rax,%rax,1)

00000000004013d0 <__do_global_dtors_aux>:
  4013d0:	80 3d 91 4e 20 00 00 	cmpb   $0x0,0x204e91(%rip)        # 606268 <completed.7594>
  4013d7:	75 11                	jne    4013ea <__do_global_dtors_aux+0x1a>
  4013d9:	55                   	push   %rbp
  4013da:	48 89 e5             	mov    %rsp,%rbp
  4013dd:	e8 6e ff ff ff       	callq  401350 <deregister_tm_clones>
  4013e2:	5d                   	pop    %rbp
  4013e3:	c6 05 7e 4e 20 00 01 	movb   $0x1,0x204e7e(%rip)        # 606268 <completed.7594>
  4013ea:	f3 c3                	repz retq 
  4013ec:	0f 1f 40 00          	nopl   0x0(%rax)

00000000004013f0 <frame_dummy>:
  4013f0:	bf 10 5e 60 00       	mov    $0x605e10,%edi
  4013f5:	48 83 3f 00          	cmpq   $0x0,(%rdi)
  4013f9:	75 05                	jne    401400 <frame_dummy+0x10>
  4013fb:	eb 93                	jmp    401390 <register_tm_clones>
  4013fd:	0f 1f 00             	nopl   (%rax)
  401400:	b8 00 00 00 00       	mov    $0x0,%eax
  401405:	48 85 c0             	test   %rax,%rax
  401408:	74 f1                	je     4013fb <frame_dummy+0xb>
  40140a:	55                   	push   %rbp
  40140b:	48 89 e5             	mov    %rsp,%rbp
  40140e:	ff d0                	callq  *%rax
  401410:	5d                   	pop    %rbp
  401411:	e9 7a ff ff ff       	jmpq   401390 <register_tm_clones>

0000000000401416 <arp_send_request>:
  401416:	55                   	push   %rbp
  401417:	48 89 e5             	mov    %rsp,%rbp
  40141a:	48 83 ec 30          	sub    $0x30,%rsp
  40141e:	48 89 7d d8          	mov    %rdi,-0x28(%rbp)
  401422:	89 75 d4             	mov    %esi,-0x2c(%rbp)
  401425:	bf 2a 00 00 00       	mov    $0x2a,%edi
  40142a:	e8 a1 fd ff ff       	callq  4011d0 <malloc@plt>
  40142f:	48 89 45 e8          	mov    %rax,-0x18(%rbp)
  401433:	48 8b 45 e8          	mov    -0x18(%rbp),%rax
  401437:	48 89 45 f0          	mov    %rax,-0x10(%rbp)
  40143b:	48 8b 45 f0          	mov    -0x10(%rbp),%rax
  40143f:	ba 06 00 00 00       	mov    $0x6,%edx
  401444:	be ff 00 00 00       	mov    $0xff,%esi
  401449:	48 89 c7             	mov    %rax,%rdi
  40144c:	e8 bf fc ff ff       	callq  401110 <memset@plt>
  401451:	48 8b 45 d8          	mov    -0x28(%rbp),%rax
  401455:	48 8d 48 18          	lea    0x18(%rax),%rcx
  401459:	48 8b 45 f0          	mov    -0x10(%rbp),%rax
  40145d:	48 83 c0 06          	add    $0x6,%rax
  401461:	ba 06 00 00 00       	mov    $0x6,%edx
  401466:	48 89 ce             	mov    %rcx,%rsi
  401469:	48 89 c7             	mov    %rax,%rdi
  40146c:	e8 2f fd ff ff       	callq  4011a0 <memcpy@plt>
  401471:	bf 06 08 00 00       	mov    $0x806,%edi
  401476:	e8 45 fc ff ff       	callq  4010c0 <htons@plt>
  40147b:	89 c2                	mov    %eax,%edx
  40147d:	48 8b 45 f0          	mov    -0x10(%rbp),%rax
  401481:	66 89 50 0c          	mov    %dx,0xc(%rax)
  401485:	48 8b 45 e8          	mov    -0x18(%rbp),%rax
  401489:	48 83 c0 0e          	add    $0xe,%rax
  40148d:	48 89 45 f8          	mov    %rax,-0x8(%rbp)
  401491:	bf 01 00 00 00       	mov    $0x1,%edi
  401496:	e8 25 fc ff ff       	callq  4010c0 <htons@plt>
  40149b:	89 c2                	mov    %eax,%edx
  40149d:	48 8b 45 f8          	mov    -0x8(%rbp),%rax
  4014a1:	66 89 10             	mov    %dx,(%rax)
  4014a4:	bf 00 08 00 00       	mov    $0x800,%edi
  4014a9:	e8 12 fc ff ff       	callq  4010c0 <htons@plt>
  4014ae:	89 c2                	mov    %eax,%edx
  4014b0:	48 8b 45 f8          	mov    -0x8(%rbp),%rax
  4014b4:	66 89 50 02          	mov    %dx,0x2(%rax)
  4014b8:	48 8b 45 f8          	mov    -0x8(%rbp),%rax
  4014bc:	c6 40 04 06          	movb   $0x6,0x4(%rax)
  4014c0:	48 8b 45 f8          	mov    -0x8(%rbp),%rax
  4014c4:	c6 40 05 04          	movb   $0x4,0x5(%rax)
  4014c8:	bf 01 00 00 00       	mov    $0x1,%edi
  4014cd:	e8 ee fb ff ff       	callq  4010c0 <htons@plt>
  4014d2:	89 c2                	mov    %eax,%edx
  4014d4:	48 8b 45 f8          	mov    -0x8(%rbp),%rax
  4014d8:	66 89 50 06          	mov    %dx,0x6(%rax)
  4014dc:	48 8b 45 d8          	mov    -0x28(%rbp),%rax
  4014e0:	48 8d 48 18          	lea    0x18(%rax),%rcx
  4014e4:	48 8b 45 f8          	mov    -0x8(%rbp),%rax
  4014e8:	48 83 c0 08          	add    $0x8,%rax
  4014ec:	ba 06 00 00 00       	mov    $0x6,%edx
  4014f1:	48 89 ce             	mov    %rcx,%rsi
  4014f4:	48 89 c7             	mov    %rax,%rdi
  4014f7:	e8 a4 fc ff ff       	callq  4011a0 <memcpy@plt>
  4014fc:	48 8b 45 d8          	mov    -0x28(%rbp),%rax
  401500:	8b 40 20             	mov    0x20(%rax),%eax
  401503:	89 c7                	mov    %eax,%edi
  401505:	e8 f6 fb ff ff       	callq  401100 <htonl@plt>
  40150a:	89 c2                	mov    %eax,%edx
  40150c:	48 8b 45 f8          	mov    -0x8(%rbp),%rax
  401510:	89 50 0e             	mov    %edx,0xe(%rax)
  401513:	48 8b 45 f8          	mov    -0x8(%rbp),%rax
  401517:	48 83 c0 12          	add    $0x12,%rax
  40151b:	ba 06 00 00 00       	mov    $0x6,%edx
  401520:	be 00 00 00 00       	mov    $0x0,%esi
  401525:	48 89 c7             	mov    %rax,%rdi
  401528:	e8 e3 fb ff ff       	callq  401110 <memset@plt>
  40152d:	8b 45 d4             	mov    -0x2c(%rbp),%eax
  401530:	89 c7                	mov    %eax,%edi
  401532:	e8 c9 fb ff ff       	callq  401100 <htonl@plt>
  401537:	89 c2                	mov    %eax,%edx
  401539:	48 8b 45 f8          	mov    -0x8(%rbp),%rax
  40153d:	89 50 18             	mov    %edx,0x18(%rax)
  401540:	48 8b 4d e8          	mov    -0x18(%rbp),%rcx
  401544:	48 8b 45 d8          	mov    -0x28(%rbp),%rax
  401548:	ba 2a 00 00 00       	mov    $0x2a,%edx
  40154d:	48 89 ce             	mov    %rcx,%rsi
  401550:	48 89 c7             	mov    %rax,%rdi
  401553:	e8 dc 22 00 00       	callq  403834 <iface_send_packet>
  401558:	90                   	nop
  401559:	c9                   	leaveq 
  40155a:	c3                   	retq   

000000000040155b <arp_send_reply>:
  40155b:	55                   	push   %rbp
  40155c:	48 89 e5             	mov    %rsp,%rbp
  40155f:	48 83 ec 30          	sub    $0x30,%rsp
  401563:	48 89 7d d8          	mov    %rdi,-0x28(%rbp)
  401567:	48 89 75 d0          	mov    %rsi,-0x30(%rbp)
  40156b:	bf 2a 00 00 00       	mov    $0x2a,%edi
  401570:	e8 5b fc ff ff       	callq  4011d0 <malloc@plt>
  401575:	48 89 45 e8          	mov    %rax,-0x18(%rbp)
  401579:	48 8b 45 e8          	mov    -0x18(%rbp),%rax
  40157d:	48 89 45 f0          	mov    %rax,-0x10(%rbp)
  401581:	48 8b 45 d0          	mov    -0x30(%rbp),%rax
  401585:	48 8d 48 08          	lea    0x8(%rax),%rcx
  401589:	48 8b 45 f0          	mov    -0x10(%rbp),%rax
  40158d:	ba 06 00 00 00       	mov    $0x6,%edx
  401592:	48 89 ce             	mov    %rcx,%rsi
  401595:	48 89 c7             	mov    %rax,%rdi
  401598:	e8 03 fc ff ff       	callq  4011a0 <memcpy@plt>
  40159d:	48 8b 45 d8          	mov    -0x28(%rbp),%rax
  4015a1:	48 8d 48 18          	lea    0x18(%rax),%rcx
  4015a5:	48 8b 45 f0          	mov    -0x10(%rbp),%rax
  4015a9:	48 83 c0 06          	add    $0x6,%rax
  4015ad:	ba 06 00 00 00       	mov    $0x6,%edx
  4015b2:	48 89 ce             	mov    %rcx,%rsi
  4015b5:	48 89 c7             	mov    %rax,%rdi
  4015b8:	e8 e3 fb ff ff       	callq  4011a0 <memcpy@plt>
  4015bd:	bf 06 08 00 00       	mov    $0x806,%edi
  4015c2:	e8 f9 fa ff ff       	callq  4010c0 <htons@plt>
  4015c7:	89 c2                	mov    %eax,%edx
  4015c9:	48 8b 45 f0          	mov    -0x10(%rbp),%rax
  4015cd:	66 89 50 0c          	mov    %dx,0xc(%rax)
  4015d1:	48 8b 45 e8          	mov    -0x18(%rbp),%rax
  4015d5:	48 83 c0 0e          	add    $0xe,%rax
  4015d9:	48 89 45 f8          	mov    %rax,-0x8(%rbp)
  4015dd:	bf 01 00 00 00       	mov    $0x1,%edi
  4015e2:	e8 d9 fa ff ff       	callq  4010c0 <htons@plt>
  4015e7:	89 c2                	mov    %eax,%edx
  4015e9:	48 8b 45 f8          	mov    -0x8(%rbp),%rax
  4015ed:	66 89 10             	mov    %dx,(%rax)
  4015f0:	bf 00 08 00 00       	mov    $0x800,%edi
  4015f5:	e8 c6 fa ff ff       	callq  4010c0 <htons@plt>
  4015fa:	89 c2                	mov    %eax,%edx
  4015fc:	48 8b 45 f8          	mov    -0x8(%rbp),%rax
  401600:	66 89 50 02          	mov    %dx,0x2(%rax)
  401604:	48 8b 45 f8          	mov    -0x8(%rbp),%rax
  401608:	c6 40 04 06          	movb   $0x6,0x4(%rax)
  40160c:	48 8b 45 f8          	mov    -0x8(%rbp),%rax
  401610:	c6 40 05 04          	movb   $0x4,0x5(%rax)
  401614:	bf 02 00 00 00       	mov    $0x2,%edi
  401619:	e8 a2 fa ff ff       	callq  4010c0 <htons@plt>
  40161e:	89 c2                	mov    %eax,%edx
  401620:	48 8b 45 f8          	mov    -0x8(%rbp),%rax
  401624:	66 89 50 06          	mov    %dx,0x6(%rax)
  401628:	48 8b 45 d8          	mov    -0x28(%rbp),%rax
  40162c:	48 8d 48 18          	lea    0x18(%rax),%rcx
  401630:	48 8b 45 f8          	mov    -0x8(%rbp),%rax
  401634:	48 83 c0 08          	add    $0x8,%rax
  401638:	ba 06 00 00 00       	mov    $0x6,%edx
  40163d:	48 89 ce             	mov    %rcx,%rsi
  401640:	48 89 c7             	mov    %rax,%rdi
  401643:	e8 58 fb ff ff       	callq  4011a0 <memcpy@plt>
  401648:	48 8b 45 d8          	mov    -0x28(%rbp),%rax
  40164c:	8b 40 20             	mov    0x20(%rax),%eax
  40164f:	89 c7                	mov    %eax,%edi
  401651:	e8 aa fa ff ff       	callq  401100 <htonl@plt>
  401656:	89 c2                	mov    %eax,%edx
  401658:	48 8b 45 f8          	mov    -0x8(%rbp),%rax
  40165c:	89 50 0e             	mov    %edx,0xe(%rax)
  40165f:	48 8b 45 d0          	mov    -0x30(%rbp),%rax
  401663:	48 8d 48 08          	lea    0x8(%rax),%rcx
  401667:	48 8b 45 f8          	mov    -0x8(%rbp),%rax
  40166b:	48 83 c0 12          	add    $0x12,%rax
  40166f:	ba 06 00 00 00       	mov    $0x6,%edx
  401674:	48 89 ce             	mov    %rcx,%rsi
  401677:	48 89 c7             	mov    %rax,%rdi
  40167a:	e8 21 fb ff ff       	callq  4011a0 <memcpy@plt>
  40167f:	48 8b 45 d0          	mov    -0x30(%rbp),%rax
  401683:	8b 40 0e             	mov    0xe(%rax),%eax
  401686:	89 c7                	mov    %eax,%edi
  401688:	e8 73 fa ff ff       	callq  401100 <htonl@plt>
  40168d:	89 c2                	mov    %eax,%edx
  40168f:	48 8b 45 f8          	mov    -0x8(%rbp),%rax
  401693:	89 50 18             	mov    %edx,0x18(%rax)
  401696:	48 8b 4d e8          	mov    -0x18(%rbp),%rcx
  40169a:	48 8b 45 d8          	mov    -0x28(%rbp),%rax
  40169e:	ba 2a 00 00 00       	mov    $0x2a,%edx
  4016a3:	48 89 ce             	mov    %rcx,%rsi
  4016a6:	48 89 c7             	mov    %rax,%rdi
  4016a9:	e8 86 21 00 00       	callq  403834 <iface_send_packet>
  4016ae:	90                   	nop
  4016af:	c9                   	leaveq 
  4016b0:	c3                   	retq   

00000000004016b1 <handle_arp_packet>:
  4016b1:	55                   	push   %rbp
  4016b2:	48 89 e5             	mov    %rsp,%rbp
  4016b5:	53                   	push   %rbx
  4016b6:	48 83 ec 38          	sub    $0x38,%rsp
  4016ba:	48 89 7d d8          	mov    %rdi,-0x28(%rbp)
  4016be:	48 89 75 d0          	mov    %rsi,-0x30(%rbp)
  4016c2:	89 55 cc             	mov    %edx,-0x34(%rbp)
  4016c5:	48 8b 45 d0          	mov    -0x30(%rbp),%rax
  4016c9:	48 83 c0 0e          	add    $0xe,%rax
  4016cd:	48 89 45 e8          	mov    %rax,-0x18(%rbp)
  4016d1:	48 8b 45 e8          	mov    -0x18(%rbp),%rax
  4016d5:	0f b7 40 06          	movzwl 0x6(%rax),%eax
  4016d9:	0f b7 c0             	movzwl %ax,%eax
  4016dc:	89 c7                	mov    %eax,%edi
  4016de:	e8 1d fb ff ff       	callq  401200 <ntohs@plt>
  4016e3:	66 83 f8 01          	cmp    $0x1,%ax
  4016e7:	75 30                	jne    401719 <handle_arp_packet+0x68>
  4016e9:	48 8b 45 e8          	mov    -0x18(%rbp),%rax
  4016ed:	8b 40 18             	mov    0x18(%rax),%eax
  4016f0:	89 c7                	mov    %eax,%edi
  4016f2:	e8 99 fb ff ff       	callq  401290 <ntohl@plt>
  4016f7:	89 c2                	mov    %eax,%edx
  4016f9:	48 8b 45 d8          	mov    -0x28(%rbp),%rax
  4016fd:	8b 40 20             	mov    0x20(%rax),%eax
  401700:	39 c2                	cmp    %eax,%edx
  401702:	75 36                	jne    40173a <handle_arp_packet+0x89>
  401704:	48 8b 55 e8          	mov    -0x18(%rbp),%rdx
  401708:	48 8b 45 d8          	mov    -0x28(%rbp),%rax
  40170c:	48 89 d6             	mov    %rdx,%rsi
  40170f:	48 89 c7             	mov    %rax,%rdi
  401712:	e8 44 fe ff ff       	callq  40155b <arp_send_reply>
  401717:	eb 21                	jmp    40173a <handle_arp_packet+0x89>
  401719:	48 8b 45 e8          	mov    -0x18(%rbp),%rax
  40171d:	48 8d 58 08          	lea    0x8(%rax),%rbx
  401721:	48 8b 45 e8          	mov    -0x18(%rbp),%rax
  401725:	8b 40 0e             	mov    0xe(%rax),%eax
  401728:	89 c7                	mov    %eax,%edi
  40172a:	e8 61 fb ff ff       	callq  401290 <ntohl@plt>
  40172f:	48 89 de             	mov    %rbx,%rsi
  401732:	89 c7                	mov    %eax,%edi
  401734:	e8 ad 05 00 00       	callq  401ce6 <arpcache_insert>
  401739:	90                   	nop
  40173a:	90                   	nop
  40173b:	48 83 c4 38          	add    $0x38,%rsp
  40173f:	5b                   	pop    %rbx
  401740:	5d                   	pop    %rbp
  401741:	c3                   	retq   

0000000000401742 <iface_send_packet_by_arp>:
  401742:	55                   	push   %rbp
  401743:	48 89 e5             	mov    %rsp,%rbp
  401746:	48 83 ec 40          	sub    $0x40,%rsp
  40174a:	48 89 7d d8          	mov    %rdi,-0x28(%rbp)
  40174e:	89 75 d4             	mov    %esi,-0x2c(%rbp)
  401751:	48 89 55 c8          	mov    %rdx,-0x38(%rbp)
  401755:	89 4d d0             	mov    %ecx,-0x30(%rbp)
  401758:	64 48 8b 04 25 28 00 	mov    %fs:0x28,%rax
  40175f:	00 00 
  401761:	48 89 45 f8          	mov    %rax,-0x8(%rbp)
  401765:	31 c0                	xor    %eax,%eax
  401767:	48 8b 45 c8          	mov    -0x38(%rbp),%rax
  40176b:	48 89 45 e8          	mov    %rax,-0x18(%rbp)
  40176f:	48 8b 45 d8          	mov    -0x28(%rbp),%rax
  401773:	48 8d 48 18          	lea    0x18(%rax),%rcx
  401777:	48 8b 45 e8          	mov    -0x18(%rbp),%rax
  40177b:	48 83 c0 06          	add    $0x6,%rax
  40177f:	ba 06 00 00 00       	mov    $0x6,%edx
  401784:	48 89 ce             	mov    %rcx,%rsi
  401787:	48 89 c7             	mov    %rax,%rdi
  40178a:	e8 11 fa ff ff       	callq  4011a0 <memcpy@plt>
  40178f:	bf 00 08 00 00       	mov    $0x800,%edi
  401794:	e8 27 f9 ff ff       	callq  4010c0 <htons@plt>
  401799:	89 c2                	mov    %eax,%edx
  40179b:	48 8b 45 e8          	mov    -0x18(%rbp),%rax
  40179f:	66 89 50 0c          	mov    %dx,0xc(%rax)
  4017a3:	8b 45 d4             	mov    -0x2c(%rbp),%eax
  4017a6:	48 8d 55 f0          	lea    -0x10(%rbp),%rdx
  4017aa:	48 89 d6             	mov    %rdx,%rsi
  4017ad:	89 c7                	mov    %eax,%edi
  4017af:	e8 53 03 00 00       	callq  401b07 <arpcache_lookup>
  4017b4:	89 45 e4             	mov    %eax,-0x1c(%rbp)
  4017b7:	83 7d e4 00          	cmpl   $0x0,-0x1c(%rbp)
  4017bb:	0f 84 9d 00 00 00    	je     40185e <iface_send_packet_by_arp+0x11c>
  4017c1:	8b 05 a5 4a 20 00    	mov    0x204aa5(%rip),%eax        # 60626c <this_log_level>
  4017c7:	85 c0                	test   %eax,%eax
  4017c9:	75 66                	jne    401831 <iface_send_packet_by_arp+0xef>
  4017cb:	48 8d 45 d4          	lea    -0x2c(%rbp),%rax
  4017cf:	0f b6 00             	movzbl (%rax),%eax
  4017d2:	0f b6 f0             	movzbl %al,%esi
  4017d5:	48 8d 45 d4          	lea    -0x2c(%rbp),%rax
  4017d9:	48 83 c0 01          	add    $0x1,%rax
  4017dd:	0f b6 00             	movzbl (%rax),%eax
  4017e0:	44 0f b6 c0          	movzbl %al,%r8d
  4017e4:	48 8d 45 d4          	lea    -0x2c(%rbp),%rax
  4017e8:	48 83 c0 02          	add    $0x2,%rax
  4017ec:	0f b6 00             	movzbl (%rax),%eax
  4017ef:	0f b6 f8             	movzbl %al,%edi
  4017f2:	48 8d 45 d4          	lea    -0x2c(%rbp),%rax
  4017f6:	48 83 c0 03          	add    $0x3,%rax
  4017fa:	0f b6 00             	movzbl (%rax),%eax
  4017fd:	0f b6 c8             	movzbl %al,%ecx
  401800:	48 8b 15 b9 49 20 00 	mov    0x2049b9(%rip),%rdx        # 6061c0 <log_level_str>
  401807:	48 8b 05 52 4a 20 00 	mov    0x204a52(%rip),%rax        # 606260 <stderr@@GLIBC_2.2.5>
  40180e:	48 83 ec 08          	sub    $0x8,%rsp
  401812:	56                   	push   %rsi
  401813:	45 89 c1             	mov    %r8d,%r9d
  401816:	41 89 f8             	mov    %edi,%r8d
  401819:	be 68 43 40 00       	mov    $0x404368,%esi
  40181e:	48 89 c7             	mov    %rax,%rdi
  401821:	b8 00 00 00 00       	mov    $0x0,%eax
  401826:	e8 65 f9 ff ff       	callq  401190 <fprintf@plt>
  40182b:	48 83 c4 10          	add    $0x10,%rsp
  40182f:	eb 01                	jmp    401832 <iface_send_packet_by_arp+0xf0>
  401831:	90                   	nop
  401832:	48 8b 45 e8          	mov    -0x18(%rbp),%rax
  401836:	8b 55 f0             	mov    -0x10(%rbp),%edx
  401839:	89 10                	mov    %edx,(%rax)
  40183b:	0f b7 55 f4          	movzwl -0xc(%rbp),%edx
  40183f:	66 89 50 04          	mov    %dx,0x4(%rax)
  401843:	8b 55 d0             	mov    -0x30(%rbp),%edx
  401846:	48 8b 4d c8          	mov    -0x38(%rbp),%rcx
  40184a:	48 8b 45 d8          	mov    -0x28(%rbp),%rax
  40184e:	48 89 ce             	mov    %rcx,%rsi
  401851:	48 89 c7             	mov    %rax,%rdi
  401854:	e8 db 1f 00 00       	callq  403834 <iface_send_packet>
  401859:	e9 87 00 00 00       	jmpq   4018e5 <iface_send_packet_by_arp+0x1a3>
  40185e:	8b 05 08 4a 20 00    	mov    0x204a08(%rip),%eax        # 60626c <this_log_level>
  401864:	85 c0                	test   %eax,%eax
  401866:	75 66                	jne    4018ce <iface_send_packet_by_arp+0x18c>
  401868:	48 8d 45 d4          	lea    -0x2c(%rbp),%rax
  40186c:	0f b6 00             	movzbl (%rax),%eax
  40186f:	0f b6 f0             	movzbl %al,%esi
  401872:	48 8d 45 d4          	lea    -0x2c(%rbp),%rax
  401876:	48 83 c0 01          	add    $0x1,%rax
  40187a:	0f b6 00             	movzbl (%rax),%eax
  40187d:	44 0f b6 c0          	movzbl %al,%r8d
  401881:	48 8d 45 d4          	lea    -0x2c(%rbp),%rax
  401885:	48 83 c0 02          	add    $0x2,%rax
  401889:	0f b6 00             	movzbl (%rax),%eax
  40188c:	0f b6 f8             	movzbl %al,%edi
  40188f:	48 8d 45 d4          	lea    -0x2c(%rbp),%rax
  401893:	48 83 c0 03          	add    $0x3,%rax
  401897:	0f b6 00             	movzbl (%rax),%eax
  40189a:	0f b6 c8             	movzbl %al,%ecx
  40189d:	48 8b 15 1c 49 20 00 	mov    0x20491c(%rip),%rdx        # 6061c0 <log_level_str>
  4018a4:	48 8b 05 b5 49 20 00 	mov    0x2049b5(%rip),%rax        # 606260 <stderr@@GLIBC_2.2.5>
  4018ab:	48 83 ec 08          	sub    $0x8,%rsp
  4018af:	56                   	push   %rsi
  4018b0:	45 89 c1             	mov    %r8d,%r9d
  4018b3:	41 89 f8             	mov    %edi,%r8d
  4018b6:	be a8 43 40 00       	mov    $0x4043a8,%esi
  4018bb:	48 89 c7             	mov    %rax,%rdi
  4018be:	b8 00 00 00 00       	mov    $0x0,%eax
  4018c3:	e8 c8 f8 ff ff       	callq  401190 <fprintf@plt>
  4018c8:	48 83 c4 10          	add    $0x10,%rsp
  4018cc:	eb 01                	jmp    4018cf <iface_send_packet_by_arp+0x18d>
  4018ce:	90                   	nop
  4018cf:	8b 75 d4             	mov    -0x2c(%rbp),%esi
  4018d2:	8b 4d d0             	mov    -0x30(%rbp),%ecx
  4018d5:	48 8b 55 c8          	mov    -0x38(%rbp),%rdx
  4018d9:	48 8b 45 d8          	mov    -0x28(%rbp),%rax
  4018dd:	48 89 c7             	mov    %rax,%rdi
  4018e0:	e8 a4 02 00 00       	callq  401b89 <arpcache_append_packet>
  4018e5:	90                   	nop
  4018e6:	48 8b 45 f8          	mov    -0x8(%rbp),%rax
  4018ea:	64 48 33 04 25 28 00 	xor    %fs:0x28,%rax
  4018f1:	00 00 
  4018f3:	74 05                	je     4018fa <iface_send_packet_by_arp+0x1b8>
  4018f5:	e8 a6 f7 ff ff       	callq  4010a0 <__stack_chk_fail@plt>
  4018fa:	c9                   	leaveq 
  4018fb:	c3                   	retq   

00000000004018fc <init_list_head>:
  4018fc:	55                   	push   %rbp
  4018fd:	48 89 e5             	mov    %rsp,%rbp
  401900:	48 89 7d f8          	mov    %rdi,-0x8(%rbp)
  401904:	48 8b 45 f8          	mov    -0x8(%rbp),%rax
  401908:	48 8b 55 f8          	mov    -0x8(%rbp),%rdx
  40190c:	48 89 50 08          	mov    %rdx,0x8(%rax)
  401910:	48 8b 45 f8          	mov    -0x8(%rbp),%rax
  401914:	48 8b 50 08          	mov    0x8(%rax),%rdx
  401918:	48 8b 45 f8          	mov    -0x8(%rbp),%rax
  40191c:	48 89 10             	mov    %rdx,(%rax)
  40191f:	90                   	nop
  401920:	5d                   	pop    %rbp
  401921:	c3                   	retq   

0000000000401922 <list_insert>:
  401922:	55                   	push   %rbp
  401923:	48 89 e5             	mov    %rsp,%rbp
  401926:	48 89 7d f8          	mov    %rdi,-0x8(%rbp)
  40192a:	48 89 75 f0          	mov    %rsi,-0x10(%rbp)
  40192e:	48 89 55 e8          	mov    %rdx,-0x18(%rbp)
  401932:	48 8b 45 e8          	mov    -0x18(%rbp),%rax
  401936:	48 8b 55 f8          	mov    -0x8(%rbp),%rdx
  40193a:	48 89 50 08          	mov    %rdx,0x8(%rax)
  40193e:	48 8b 45 f0          	mov    -0x10(%rbp),%rax
  401942:	48 8b 55 f8          	mov    -0x8(%rbp),%rdx
  401946:	48 89 10             	mov    %rdx,(%rax)
  401949:	48 8b 45 f8          	mov    -0x8(%rbp),%rax
  40194d:	48 8b 55 e8          	mov    -0x18(%rbp),%rdx
  401951:	48 89 10             	mov    %rdx,(%rax)
  401954:	48 8b 45 f8          	mov    -0x8(%rbp),%rax
  401958:	48 8b 55 f0          	mov    -0x10(%rbp),%rdx
  40195c:	48 89 50 08          	mov    %rdx,0x8(%rax)
  401960:	90                   	nop
  401961:	5d                   	pop    %rbp
  401962:	c3                   	retq   

0000000000401963 <list_add_tail>:
  401963:	55                   	push   %rbp
  401964:	48 89 e5             	mov    %rsp,%rbp
  401967:	48 83 ec 10          	sub    $0x10,%rsp
  40196b:	48 89 7d f8          	mov    %rdi,-0x8(%rbp)
  40196f:	48 89 75 f0          	mov    %rsi,-0x10(%rbp)
  401973:	48 8b 45 f0          	mov    -0x10(%rbp),%rax
  401977:	48 8b 48 08          	mov    0x8(%rax),%rcx
  40197b:	48 8b 55 f0          	mov    -0x10(%rbp),%rdx
  40197f:	48 8b 45 f8          	mov    -0x8(%rbp),%rax
  401983:	48 89 ce             	mov    %rcx,%rsi
  401986:	48 89 c7             	mov    %rax,%rdi
  401989:	e8 94 ff ff ff       	callq  401922 <list_insert>
  40198e:	90                   	nop
  40198f:	c9                   	leaveq 
  401990:	c3                   	retq   

0000000000401991 <list_delete_entry>:
  401991:	55                   	push   %rbp
  401992:	48 89 e5             	mov    %rsp,%rbp
  401995:	48 89 7d f8          	mov    %rdi,-0x8(%rbp)
  401999:	48 8b 45 f8          	mov    -0x8(%rbp),%rax
  40199d:	48 8b 00             	mov    (%rax),%rax
  4019a0:	48 8b 55 f8          	mov    -0x8(%rbp),%rdx
  4019a4:	48 8b 52 08          	mov    0x8(%rdx),%rdx
  4019a8:	48 89 50 08          	mov    %rdx,0x8(%rax)
  4019ac:	48 8b 45 f8          	mov    -0x8(%rbp),%rax
  4019b0:	48 8b 40 08          	mov    0x8(%rax),%rax
  4019b4:	48 8b 55 f8          	mov    -0x8(%rbp),%rdx
  4019b8:	48 8b 12             	mov    (%rdx),%rdx
  4019bb:	48 89 10             	mov    %rdx,(%rax)
  4019be:	90                   	nop
  4019bf:	5d                   	pop    %rbp
  4019c0:	c3                   	retq   

00000000004019c1 <arpcache_init>:
  4019c1:	55                   	push   %rbp
  4019c2:	48 89 e5             	mov    %rsp,%rbp
  4019c5:	be 40 04 00 00       	mov    $0x440,%esi
  4019ca:	bf 80 62 60 00       	mov    $0x606280,%edi
  4019cf:	e8 7c f8 ff ff       	callq  401250 <bzero@plt>
  4019d4:	bf 80 66 60 00       	mov    $0x606680,%edi
  4019d9:	e8 1e ff ff ff       	callq  4018fc <init_list_head>
  4019de:	be 00 00 00 00       	mov    $0x0,%esi
  4019e3:	bf 90 66 60 00       	mov    $0x606690,%edi
  4019e8:	e8 d3 f8 ff ff       	callq  4012c0 <pthread_mutex_init@plt>
  4019ed:	b9 00 00 00 00       	mov    $0x0,%ecx
  4019f2:	ba 15 1f 40 00       	mov    $0x401f15,%edx
  4019f7:	be 00 00 00 00       	mov    $0x0,%esi
  4019fc:	bf b8 66 60 00       	mov    $0x6066b8,%edi
  401a01:	e8 2a f6 ff ff       	callq  401030 <pthread_create@plt>
  401a06:	90                   	nop
  401a07:	5d                   	pop    %rbp
  401a08:	c3                   	retq   

0000000000401a09 <arpcache_destroy>:
  401a09:	55                   	push   %rbp
  401a0a:	48 89 e5             	mov    %rsp,%rbp
  401a0d:	48 83 ec 20          	sub    $0x20,%rsp
  401a11:	bf 90 66 60 00       	mov    $0x606690,%edi
  401a16:	e8 c5 f8 ff ff       	callq  4012e0 <pthread_mutex_lock@plt>
  401a1b:	48 c7 45 e0 00 00 00 	movq   $0x0,-0x20(%rbp)
  401a22:	00 
  401a23:	48 8b 05 56 4c 20 00 	mov    0x204c56(%rip),%rax        # 606680 <arpcache+0x400>
  401a2a:	48 89 45 e0          	mov    %rax,-0x20(%rbp)
  401a2e:	48 8b 45 e0          	mov    -0x20(%rbp),%rax
  401a32:	48 8b 00             	mov    (%rax),%rax
  401a35:	48 89 45 e8          	mov    %rax,-0x18(%rbp)
  401a39:	e9 98 00 00 00       	jmpq   401ad6 <arpcache_destroy+0xcd>
  401a3e:	48 c7 45 f0 00 00 00 	movq   $0x0,-0x10(%rbp)
  401a45:	00 
  401a46:	48 8b 45 e0          	mov    -0x20(%rbp),%rax
  401a4a:	48 8b 40 30          	mov    0x30(%rax),%rax
  401a4e:	48 89 45 f0          	mov    %rax,-0x10(%rbp)
  401a52:	48 8b 45 f0          	mov    -0x10(%rbp),%rax
  401a56:	48 8b 00             	mov    (%rax),%rax
  401a59:	48 89 45 f8          	mov    %rax,-0x8(%rbp)
  401a5d:	eb 3b                	jmp    401a9a <arpcache_destroy+0x91>
  401a5f:	48 8b 45 f0          	mov    -0x10(%rbp),%rax
  401a63:	48 89 c7             	mov    %rax,%rdi
  401a66:	e8 26 ff ff ff       	callq  401991 <list_delete_entry>
  401a6b:	48 8b 45 f0          	mov    -0x10(%rbp),%rax
  401a6f:	48 8b 40 10          	mov    0x10(%rax),%rax
  401a73:	48 89 c7             	mov    %rax,%rdi
  401a76:	e8 95 f5 ff ff       	callq  401010 <free@plt>
  401a7b:	48 8b 45 f0          	mov    -0x10(%rbp),%rax
  401a7f:	48 89 c7             	mov    %rax,%rdi
  401a82:	e8 89 f5 ff ff       	callq  401010 <free@plt>
  401a87:	48 8b 45 f8          	mov    -0x8(%rbp),%rax
  401a8b:	48 89 45 f0          	mov    %rax,-0x10(%rbp)
  401a8f:	48 8b 45 f0          	mov    -0x10(%rbp),%rax
  401a93:	48 8b 00             	mov    (%rax),%rax
  401a96:	48 89 45 f8          	mov    %rax,-0x8(%rbp)
  401a9a:	48 8b 45 f0          	mov    -0x10(%rbp),%rax
  401a9e:	48 8b 55 e0          	mov    -0x20(%rbp),%rdx
  401aa2:	48 83 c2 30          	add    $0x30,%rdx
  401aa6:	48 39 d0             	cmp    %rdx,%rax
  401aa9:	75 b4                	jne    401a5f <arpcache_destroy+0x56>
  401aab:	48 8b 45 e0          	mov    -0x20(%rbp),%rax
  401aaf:	48 89 c7             	mov    %rax,%rdi
  401ab2:	e8 da fe ff ff       	callq  401991 <list_delete_entry>
  401ab7:	48 8b 45 e0          	mov    -0x20(%rbp),%rax
  401abb:	48 89 c7             	mov    %rax,%rdi
  401abe:	e8 4d f5 ff ff       	callq  401010 <free@plt>
  401ac3:	48 8b 45 e8          	mov    -0x18(%rbp),%rax
  401ac7:	48 89 45 e0          	mov    %rax,-0x20(%rbp)
  401acb:	48 8b 45 e0          	mov    -0x20(%rbp),%rax
  401acf:	48 8b 00             	mov    (%rax),%rax
  401ad2:	48 89 45 e8          	mov    %rax,-0x18(%rbp)
  401ad6:	48 8b 45 e0          	mov    -0x20(%rbp),%rax
  401ada:	48 3d 80 66 60 00    	cmp    $0x606680,%rax
  401ae0:	0f 85 58 ff ff ff    	jne    401a3e <arpcache_destroy+0x35>
  401ae6:	48 8b 05 cb 4b 20 00 	mov    0x204bcb(%rip),%rax        # 6066b8 <arpcache+0x438>
  401aed:	be 0f 00 00 00       	mov    $0xf,%esi
  401af2:	48 89 c7             	mov    %rax,%rdi
  401af5:	e8 76 f5 ff ff       	callq  401070 <pthread_kill@plt>
  401afa:	bf 90 66 60 00       	mov    $0x606690,%edi
  401aff:	e8 bc f6 ff ff       	callq  4011c0 <pthread_mutex_unlock@plt>
  401b04:	90                   	nop
  401b05:	c9                   	leaveq 
  401b06:	c3                   	retq   

0000000000401b07 <arpcache_lookup>:
  401b07:	55                   	push   %rbp
  401b08:	48 89 e5             	mov    %rsp,%rbp
  401b0b:	48 83 ec 20          	sub    $0x20,%rsp
  401b0f:	89 7d ec             	mov    %edi,-0x14(%rbp)
  401b12:	48 89 75 e0          	mov    %rsi,-0x20(%rbp)
  401b16:	c7 45 fc 00 00 00 00 	movl   $0x0,-0x4(%rbp)
  401b1d:	eb 5d                	jmp    401b7c <arpcache_lookup+0x75>
  401b1f:	8b 45 fc             	mov    -0x4(%rbp),%eax
  401b22:	48 98                	cltq   
  401b24:	48 c1 e0 05          	shl    $0x5,%rax
  401b28:	48 05 98 62 60 00    	add    $0x606298,%rax
  401b2e:	8b 00                	mov    (%rax),%eax
  401b30:	85 c0                	test   %eax,%eax
  401b32:	74 44                	je     401b78 <arpcache_lookup+0x71>
  401b34:	8b 45 fc             	mov    -0x4(%rbp),%eax
  401b37:	48 98                	cltq   
  401b39:	48 c1 e0 05          	shl    $0x5,%rax
  401b3d:	48 05 80 62 60 00    	add    $0x606280,%rax
  401b43:	8b 00                	mov    (%rax),%eax
  401b45:	3b 45 ec             	cmp    -0x14(%rbp),%eax
  401b48:	75 2e                	jne    401b78 <arpcache_lookup+0x71>
  401b4a:	8b 45 fc             	mov    -0x4(%rbp),%eax
  401b4d:	48 98                	cltq   
  401b4f:	48 c1 e0 05          	shl    $0x5,%rax
  401b53:	48 05 80 62 60 00    	add    $0x606280,%rax
  401b59:	48 8d 48 04          	lea    0x4(%rax),%rcx
  401b5d:	48 8b 45 e0          	mov    -0x20(%rbp),%rax
  401b61:	ba 06 00 00 00       	mov    $0x6,%edx
  401b66:	48 89 ce             	mov    %rcx,%rsi
  401b69:	48 89 c7             	mov    %rax,%rdi
  401b6c:	e8 2f f6 ff ff       	callq  4011a0 <memcpy@plt>
  401b71:	b8 01 00 00 00       	mov    $0x1,%eax
  401b76:	eb 0f                	jmp    401b87 <arpcache_lookup+0x80>
  401b78:	83 45 fc 01          	addl   $0x1,-0x4(%rbp)
  401b7c:	83 7d fc 1f          	cmpl   $0x1f,-0x4(%rbp)
  401b80:	7e 9d                	jle    401b1f <arpcache_lookup+0x18>
  401b82:	b8 00 00 00 00       	mov    $0x0,%eax
  401b87:	c9                   	leaveq 
  401b88:	c3                   	retq   

0000000000401b89 <arpcache_append_packet>:
  401b89:	55                   	push   %rbp
  401b8a:	48 89 e5             	mov    %rsp,%rbp
  401b8d:	48 83 ec 40          	sub    $0x40,%rsp
  401b91:	48 89 7d d8          	mov    %rdi,-0x28(%rbp)
  401b95:	89 75 d4             	mov    %esi,-0x2c(%rbp)
  401b98:	48 89 55 c8          	mov    %rdx,-0x38(%rbp)
  401b9c:	89 4d d0             	mov    %ecx,-0x30(%rbp)
  401b9f:	bf 90 66 60 00       	mov    $0x606690,%edi
  401ba4:	e8 37 f7 ff ff       	callq  4012e0 <pthread_mutex_lock@plt>
  401ba9:	bf 20 00 00 00       	mov    $0x20,%edi
  401bae:	e8 1d f6 ff ff       	callq  4011d0 <malloc@plt>
  401bb3:	48 89 45 f0          	mov    %rax,-0x10(%rbp)
  401bb7:	48 8b 45 f0          	mov    -0x10(%rbp),%rax
  401bbb:	48 8b 55 c8          	mov    -0x38(%rbp),%rdx
  401bbf:	48 89 50 10          	mov    %rdx,0x10(%rax)
  401bc3:	48 8b 45 f0          	mov    -0x10(%rbp),%rax
  401bc7:	8b 55 d0             	mov    -0x30(%rbp),%edx
  401bca:	89 50 18             	mov    %edx,0x18(%rax)
  401bcd:	48 c7 45 e0 00 00 00 	movq   $0x0,-0x20(%rbp)
  401bd4:	00 
  401bd5:	48 8b 05 a4 4a 20 00 	mov    0x204aa4(%rip),%rax        # 606680 <arpcache+0x400>
  401bdc:	48 89 45 e0          	mov    %rax,-0x20(%rbp)
  401be0:	48 8b 45 e0          	mov    -0x20(%rbp),%rax
  401be4:	48 8b 00             	mov    (%rax),%rax
  401be7:	48 89 45 e8          	mov    %rax,-0x18(%rbp)
  401beb:	eb 53                	jmp    401c40 <arpcache_append_packet+0xb7>
  401bed:	48 8b 45 e0          	mov    -0x20(%rbp),%rax
  401bf1:	8b 40 18             	mov    0x18(%rax),%eax
  401bf4:	3b 45 d4             	cmp    -0x2c(%rbp),%eax
  401bf7:	75 34                	jne    401c2d <arpcache_append_packet+0xa4>
  401bf9:	48 8b 45 e0          	mov    -0x20(%rbp),%rax
  401bfd:	48 8b 40 10          	mov    0x10(%rax),%rax
  401c01:	48 3b 45 d8          	cmp    -0x28(%rbp),%rax
  401c05:	75 26                	jne    401c2d <arpcache_append_packet+0xa4>
  401c07:	48 8b 45 e0          	mov    -0x20(%rbp),%rax
  401c0b:	48 8d 50 30          	lea    0x30(%rax),%rdx
  401c0f:	48 8b 45 f0          	mov    -0x10(%rbp),%rax
  401c13:	48 89 d6             	mov    %rdx,%rsi
  401c16:	48 89 c7             	mov    %rax,%rdi
  401c19:	e8 45 fd ff ff       	callq  401963 <list_add_tail>
  401c1e:	bf 90 66 60 00       	mov    $0x606690,%edi
  401c23:	e8 98 f5 ff ff       	callq  4011c0 <pthread_mutex_unlock@plt>
  401c28:	e9 b7 00 00 00       	jmpq   401ce4 <arpcache_append_packet+0x15b>
  401c2d:	48 8b 45 e8          	mov    -0x18(%rbp),%rax
  401c31:	48 89 45 e0          	mov    %rax,-0x20(%rbp)
  401c35:	48 8b 45 e0          	mov    -0x20(%rbp),%rax
  401c39:	48 8b 00             	mov    (%rax),%rax
  401c3c:	48 89 45 e8          	mov    %rax,-0x18(%rbp)
  401c40:	48 8b 45 e0          	mov    -0x20(%rbp),%rax
  401c44:	48 3d 80 66 60 00    	cmp    $0x606680,%rax
  401c4a:	75 a1                	jne    401bed <arpcache_append_packet+0x64>
  401c4c:	bf 40 00 00 00       	mov    $0x40,%edi
  401c51:	e8 7a f5 ff ff       	callq  4011d0 <malloc@plt>
  401c56:	48 89 45 f8          	mov    %rax,-0x8(%rbp)
  401c5a:	48 8b 45 f8          	mov    -0x8(%rbp),%rax
  401c5e:	be 80 66 60 00       	mov    $0x606680,%esi
  401c63:	48 89 c7             	mov    %rax,%rdi
  401c66:	e8 f8 fc ff ff       	callq  401963 <list_add_tail>
  401c6b:	48 8b 45 f8          	mov    -0x8(%rbp),%rax
  401c6f:	48 8b 55 d8          	mov    -0x28(%rbp),%rdx
  401c73:	48 89 50 10          	mov    %rdx,0x10(%rax)
  401c77:	48 8b 45 f8          	mov    -0x8(%rbp),%rax
  401c7b:	8b 55 d4             	mov    -0x2c(%rbp),%edx
  401c7e:	89 50 18             	mov    %edx,0x18(%rax)
  401c81:	bf 00 00 00 00       	mov    $0x0,%edi
  401c86:	e8 25 f5 ff ff       	callq  4011b0 <time@plt>
  401c8b:	48 89 c2             	mov    %rax,%rdx
  401c8e:	48 8b 45 f8          	mov    -0x8(%rbp),%rax
  401c92:	48 89 50 20          	mov    %rdx,0x20(%rax)
  401c96:	48 8b 45 f8          	mov    -0x8(%rbp),%rax
  401c9a:	c7 40 28 00 00 00 00 	movl   $0x0,0x28(%rax)
  401ca1:	48 8b 45 f8          	mov    -0x8(%rbp),%rax
  401ca5:	48 83 c0 30          	add    $0x30,%rax
  401ca9:	48 89 c7             	mov    %rax,%rdi
  401cac:	e8 4b fc ff ff       	callq  4018fc <init_list_head>
  401cb1:	48 8b 45 f8          	mov    -0x8(%rbp),%rax
  401cb5:	48 8d 50 30          	lea    0x30(%rax),%rdx
  401cb9:	48 8b 45 f0          	mov    -0x10(%rbp),%rax
  401cbd:	48 89 d6             	mov    %rdx,%rsi
  401cc0:	48 89 c7             	mov    %rax,%rdi
  401cc3:	e8 9b fc ff ff       	callq  401963 <list_add_tail>
  401cc8:	8b 55 d4             	mov    -0x2c(%rbp),%edx
  401ccb:	48 8b 45 d8          	mov    -0x28(%rbp),%rax
  401ccf:	89 d6                	mov    %edx,%esi
  401cd1:	48 89 c7             	mov    %rax,%rdi
  401cd4:	e8 3d f7 ff ff       	callq  401416 <arp_send_request>
  401cd9:	bf 90 66 60 00       	mov    $0x606690,%edi
  401cde:	e8 dd f4 ff ff       	callq  4011c0 <pthread_mutex_unlock@plt>
  401ce3:	90                   	nop
  401ce4:	c9                   	leaveq 
  401ce5:	c3                   	retq   

0000000000401ce6 <arpcache_insert>:
  401ce6:	55                   	push   %rbp
  401ce7:	48 89 e5             	mov    %rsp,%rbp
  401cea:	48 83 ec 50          	sub    $0x50,%rsp
  401cee:	89 7d bc             	mov    %edi,-0x44(%rbp)
  401cf1:	48 89 75 b0          	mov    %rsi,-0x50(%rbp)
  401cf5:	bf 90 66 60 00       	mov    $0x606690,%edi
  401cfa:	e8 e1 f5 ff ff       	callq  4012e0 <pthread_mutex_lock@plt>
  401cff:	c7 45 cc ff ff ff ff 	movl   $0xffffffff,-0x34(%rbp)
  401d06:	c7 45 d0 00 00 00 00 	movl   $0x0,-0x30(%rbp)
  401d0d:	eb 22                	jmp    401d31 <arpcache_insert+0x4b>
  401d0f:	8b 45 d0             	mov    -0x30(%rbp),%eax
  401d12:	48 98                	cltq   
  401d14:	48 c1 e0 05          	shl    $0x5,%rax
  401d18:	48 05 80 62 60 00    	add    $0x606280,%rax
  401d1e:	8b 00                	mov    (%rax),%eax
  401d20:	3b 45 bc             	cmp    -0x44(%rbp),%eax
  401d23:	75 08                	jne    401d2d <arpcache_insert+0x47>
  401d25:	8b 45 d0             	mov    -0x30(%rbp),%eax
  401d28:	89 45 cc             	mov    %eax,-0x34(%rbp)
  401d2b:	eb 0a                	jmp    401d37 <arpcache_insert+0x51>
  401d2d:	83 45 d0 01          	addl   $0x1,-0x30(%rbp)
  401d31:	83 7d d0 1f          	cmpl   $0x1f,-0x30(%rbp)
  401d35:	7e d8                	jle    401d0f <arpcache_insert+0x29>
  401d37:	83 7d cc ff          	cmpl   $0xffffffff,-0x34(%rbp)
  401d3b:	75 30                	jne    401d6d <arpcache_insert+0x87>
  401d3d:	c7 45 d4 00 00 00 00 	movl   $0x0,-0x2c(%rbp)
  401d44:	eb 21                	jmp    401d67 <arpcache_insert+0x81>
  401d46:	8b 45 d4             	mov    -0x2c(%rbp),%eax
  401d49:	48 98                	cltq   
  401d4b:	48 c1 e0 05          	shl    $0x5,%rax
  401d4f:	48 05 98 62 60 00    	add    $0x606298,%rax
  401d55:	8b 00                	mov    (%rax),%eax
  401d57:	85 c0                	test   %eax,%eax
  401d59:	75 08                	jne    401d63 <arpcache_insert+0x7d>
  401d5b:	8b 45 d4             	mov    -0x2c(%rbp),%eax
  401d5e:	89 45 cc             	mov    %eax,-0x34(%rbp)
  401d61:	eb 0a                	jmp    401d6d <arpcache_insert+0x87>
  401d63:	83 45 d4 01          	addl   $0x1,-0x2c(%rbp)
  401d67:	83 7d d4 1f          	cmpl   $0x1f,-0x2c(%rbp)
  401d6b:	7e d9                	jle    401d46 <arpcache_insert+0x60>
  401d6d:	83 7d cc ff          	cmpl   $0xffffffff,-0x34(%rbp)
  401d71:	75 2c                	jne    401d9f <arpcache_insert+0xb9>
  401d73:	bf 00 00 00 00       	mov    $0x0,%edi
  401d78:	e8 33 f4 ff ff       	callq  4011b0 <time@plt>
  401d7d:	89 c7                	mov    %eax,%edi
  401d7f:	e8 ec f3 ff ff       	callq  401170 <srand@plt>
  401d84:	e8 67 f5 ff ff       	callq  4012f0 <rand@plt>
  401d89:	89 c2                	mov    %eax,%edx
  401d8b:	89 d0                	mov    %edx,%eax
  401d8d:	c1 f8 1f             	sar    $0x1f,%eax
  401d90:	c1 e8 1b             	shr    $0x1b,%eax
  401d93:	01 c2                	add    %eax,%edx
  401d95:	83 e2 1f             	and    $0x1f,%edx
  401d98:	29 c2                	sub    %eax,%edx
  401d9a:	89 d0                	mov    %edx,%eax
  401d9c:	89 45 cc             	mov    %eax,-0x34(%rbp)
  401d9f:	8b 45 cc             	mov    -0x34(%rbp),%eax
  401da2:	48 98                	cltq   
  401da4:	48 c1 e0 05          	shl    $0x5,%rax
  401da8:	48 8d 90 80 62 60 00 	lea    0x606280(%rax),%rdx
  401daf:	8b 45 bc             	mov    -0x44(%rbp),%eax
  401db2:	89 02                	mov    %eax,(%rdx)
  401db4:	8b 45 cc             	mov    -0x34(%rbp),%eax
  401db7:	48 98                	cltq   
  401db9:	48 c1 e0 05          	shl    $0x5,%rax
  401dbd:	48 05 80 62 60 00    	add    $0x606280,%rax
  401dc3:	48 8d 48 04          	lea    0x4(%rax),%rcx
  401dc7:	48 8b 45 b0          	mov    -0x50(%rbp),%rax
  401dcb:	ba 06 00 00 00       	mov    $0x6,%edx
  401dd0:	48 89 c6             	mov    %rax,%rsi
  401dd3:	48 89 cf             	mov    %rcx,%rdi
  401dd6:	e8 c5 f3 ff ff       	callq  4011a0 <memcpy@plt>
  401ddb:	bf 00 00 00 00       	mov    $0x0,%edi
  401de0:	e8 cb f3 ff ff       	callq  4011b0 <time@plt>
  401de5:	48 89 c2             	mov    %rax,%rdx
  401de8:	8b 45 cc             	mov    -0x34(%rbp),%eax
  401deb:	48 98                	cltq   
  401ded:	48 c1 e0 05          	shl    $0x5,%rax
  401df1:	48 05 90 62 60 00    	add    $0x606290,%rax
  401df7:	48 89 10             	mov    %rdx,(%rax)
  401dfa:	8b 45 cc             	mov    -0x34(%rbp),%eax
  401dfd:	48 98                	cltq   
  401dff:	48 c1 e0 05          	shl    $0x5,%rax
  401e03:	48 05 98 62 60 00    	add    $0x606298,%rax
  401e09:	c7 00 01 00 00 00    	movl   $0x1,(%rax)
  401e0f:	48 c7 45 d8 00 00 00 	movq   $0x0,-0x28(%rbp)
  401e16:	00 
  401e17:	48 8b 05 62 48 20 00 	mov    0x204862(%rip),%rax        # 606680 <arpcache+0x400>
  401e1e:	48 89 45 d8          	mov    %rax,-0x28(%rbp)
  401e22:	48 8b 45 d8          	mov    -0x28(%rbp),%rax
  401e26:	48 8b 00             	mov    (%rax),%rax
  401e29:	48 89 45 e0          	mov    %rax,-0x20(%rbp)
  401e2d:	e9 c6 00 00 00       	jmpq   401ef8 <arpcache_insert+0x212>
  401e32:	48 8b 45 d8          	mov    -0x28(%rbp),%rax
  401e36:	8b 40 18             	mov    0x18(%rax),%eax
  401e39:	3b 45 bc             	cmp    -0x44(%rbp),%eax
  401e3c:	0f 85 a3 00 00 00    	jne    401ee5 <arpcache_insert+0x1ff>
  401e42:	48 c7 45 e8 00 00 00 	movq   $0x0,-0x18(%rbp)
  401e49:	00 
  401e4a:	48 8b 45 d8          	mov    -0x28(%rbp),%rax
  401e4e:	48 8b 40 30          	mov    0x30(%rax),%rax
  401e52:	48 89 45 e8          	mov    %rax,-0x18(%rbp)
  401e56:	48 8b 45 e8          	mov    -0x18(%rbp),%rax
  401e5a:	48 8b 00             	mov    (%rax),%rax
  401e5d:	48 89 45 f0          	mov    %rax,-0x10(%rbp)
  401e61:	eb 65                	jmp    401ec8 <arpcache_insert+0x1e2>
  401e63:	48 8b 45 e8          	mov    -0x18(%rbp),%rax
  401e67:	48 8b 40 10          	mov    0x10(%rax),%rax
  401e6b:	48 89 45 f8          	mov    %rax,-0x8(%rbp)
  401e6f:	48 8b 45 f8          	mov    -0x8(%rbp),%rax
  401e73:	48 8b 4d b0          	mov    -0x50(%rbp),%rcx
  401e77:	ba 06 00 00 00       	mov    $0x6,%edx
  401e7c:	48 89 ce             	mov    %rcx,%rsi
  401e7f:	48 89 c7             	mov    %rax,%rdi
  401e82:	e8 19 f3 ff ff       	callq  4011a0 <memcpy@plt>
  401e87:	48 8b 45 e8          	mov    -0x18(%rbp),%rax
  401e8b:	8b 50 18             	mov    0x18(%rax),%edx
  401e8e:	48 8b 45 e8          	mov    -0x18(%rbp),%rax
  401e92:	48 8b 48 10          	mov    0x10(%rax),%rcx
  401e96:	48 8b 45 d8          	mov    -0x28(%rbp),%rax
  401e9a:	48 8b 40 10          	mov    0x10(%rax),%rax
  401e9e:	48 89 ce             	mov    %rcx,%rsi
  401ea1:	48 89 c7             	mov    %rax,%rdi
  401ea4:	e8 8b 19 00 00       	callq  403834 <iface_send_packet>
  401ea9:	48 8b 45 e8          	mov    -0x18(%rbp),%rax
  401ead:	48 89 c7             	mov    %rax,%rdi
  401eb0:	e8 dc fa ff ff       	callq  401991 <list_delete_entry>
  401eb5:	48 8b 45 f0          	mov    -0x10(%rbp),%rax
  401eb9:	48 89 45 e8          	mov    %rax,-0x18(%rbp)
  401ebd:	48 8b 45 e8          	mov    -0x18(%rbp),%rax
  401ec1:	48 8b 00             	mov    (%rax),%rax
  401ec4:	48 89 45 f0          	mov    %rax,-0x10(%rbp)
  401ec8:	48 8b 45 e8          	mov    -0x18(%rbp),%rax
  401ecc:	48 8b 55 d8          	mov    -0x28(%rbp),%rdx
  401ed0:	48 83 c2 30          	add    $0x30,%rdx
  401ed4:	48 39 d0             	cmp    %rdx,%rax
  401ed7:	75 8a                	jne    401e63 <arpcache_insert+0x17d>
  401ed9:	48 8b 45 d8          	mov    -0x28(%rbp),%rax
  401edd:	48 89 c7             	mov    %rax,%rdi
  401ee0:	e8 ac fa ff ff       	callq  401991 <list_delete_entry>
  401ee5:	48 8b 45 e0          	mov    -0x20(%rbp),%rax
  401ee9:	48 89 45 d8          	mov    %rax,-0x28(%rbp)
  401eed:	48 8b 45 d8          	mov    -0x28(%rbp),%rax
  401ef1:	48 8b 00             	mov    (%rax),%rax
  401ef4:	48 89 45 e0          	mov    %rax,-0x20(%rbp)
  401ef8:	48 8b 45 d8          	mov    -0x28(%rbp),%rax
  401efc:	48 3d 80 66 60 00    	cmp    $0x606680,%rax
  401f02:	0f 85 2a ff ff ff    	jne    401e32 <arpcache_insert+0x14c>
  401f08:	bf 90 66 60 00       	mov    $0x606690,%edi
  401f0d:	e8 ae f2 ff ff       	callq  4011c0 <pthread_mutex_unlock@plt>
  401f12:	90                   	nop
  401f13:	c9                   	leaveq 
  401f14:	c3                   	retq   

0000000000401f15 <arpcache_sweep>:
  401f15:	55                   	push   %rbp
  401f16:	48 89 e5             	mov    %rsp,%rbp
  401f19:	48 83 ec 40          	sub    $0x40,%rsp
  401f1d:	48 89 7d c8          	mov    %rdi,-0x38(%rbp)
  401f21:	bf 01 00 00 00       	mov    $0x1,%edi
  401f26:	e8 85 f3 ff ff       	callq  4012b0 <sleep@plt>
  401f2b:	bf 90 66 60 00       	mov    $0x606690,%edi
  401f30:	e8 ab f3 ff ff       	callq  4012e0 <pthread_mutex_lock@plt>
  401f35:	bf 00 00 00 00       	mov    $0x0,%edi
  401f3a:	e8 71 f2 ff ff       	callq  4011b0 <time@plt>
  401f3f:	48 89 45 f8          	mov    %rax,-0x8(%rbp)
  401f43:	c7 45 d4 00 00 00 00 	movl   $0x0,-0x2c(%rbp)
  401f4a:	eb 3b                	jmp    401f87 <arpcache_sweep+0x72>
  401f4c:	8b 45 d4             	mov    -0x2c(%rbp),%eax
  401f4f:	48 98                	cltq   
  401f51:	48 c1 e0 05          	shl    $0x5,%rax
  401f55:	48 05 90 62 60 00    	add    $0x606290,%rax
  401f5b:	48 8b 00             	mov    (%rax),%rax
  401f5e:	48 8b 55 f8          	mov    -0x8(%rbp),%rdx
  401f62:	48 29 c2             	sub    %rax,%rdx
  401f65:	48 89 d0             	mov    %rdx,%rax
  401f68:	48 83 f8 0f          	cmp    $0xf,%rax
  401f6c:	7e 15                	jle    401f83 <arpcache_sweep+0x6e>
  401f6e:	8b 45 d4             	mov    -0x2c(%rbp),%eax
  401f71:	48 98                	cltq   
  401f73:	48 c1 e0 05          	shl    $0x5,%rax
  401f77:	48 05 98 62 60 00    	add    $0x606298,%rax
  401f7d:	c7 00 00 00 00 00    	movl   $0x0,(%rax)
  401f83:	83 45 d4 01          	addl   $0x1,-0x2c(%rbp)
  401f87:	83 7d d4 1f          	cmpl   $0x1f,-0x2c(%rbp)
  401f8b:	7e bf                	jle    401f4c <arpcache_sweep+0x37>
  401f8d:	48 c7 45 d8 00 00 00 	movq   $0x0,-0x28(%rbp)
  401f94:	00 
  401f95:	48 8b 05 e4 46 20 00 	mov    0x2046e4(%rip),%rax        # 606680 <arpcache+0x400>
  401f9c:	48 89 45 d8          	mov    %rax,-0x28(%rbp)
  401fa0:	48 8b 45 d8          	mov    -0x28(%rbp),%rax
  401fa4:	48 8b 00             	mov    (%rax),%rax
  401fa7:	48 89 45 e0          	mov    %rax,-0x20(%rbp)
  401fab:	e9 0e 01 00 00       	jmpq   4020be <arpcache_sweep+0x1a9>
  401fb0:	48 8b 45 d8          	mov    -0x28(%rbp),%rax
  401fb4:	8b 40 28             	mov    0x28(%rax),%eax
  401fb7:	83 f8 05             	cmp    $0x5,%eax
  401fba:	0f 8e 94 00 00 00    	jle    402054 <arpcache_sweep+0x13f>
  401fc0:	48 c7 45 e8 00 00 00 	movq   $0x0,-0x18(%rbp)
  401fc7:	00 
  401fc8:	48 8b 45 d8          	mov    -0x28(%rbp),%rax
  401fcc:	48 8b 40 30          	mov    0x30(%rax),%rax
  401fd0:	48 89 45 e8          	mov    %rax,-0x18(%rbp)
  401fd4:	48 8b 45 e8          	mov    -0x18(%rbp),%rax
  401fd8:	48 8b 00             	mov    (%rax),%rax
  401fdb:	48 89 45 f0          	mov    %rax,-0x10(%rbp)
  401fdf:	eb 60                	jmp    402041 <arpcache_sweep+0x12c>
  401fe1:	bf 90 66 60 00       	mov    $0x606690,%edi
  401fe6:	e8 d5 f1 ff ff       	callq  4011c0 <pthread_mutex_unlock@plt>
  401feb:	48 8b 45 e8          	mov    -0x18(%rbp),%rax
  401fef:	8b 70 18             	mov    0x18(%rax),%esi
  401ff2:	48 8b 45 e8          	mov    -0x18(%rbp),%rax
  401ff6:	48 8b 40 10          	mov    0x10(%rax),%rax
  401ffa:	b9 01 00 00 00       	mov    $0x1,%ecx
  401fff:	ba 03 00 00 00       	mov    $0x3,%edx
  402004:	48 89 c7             	mov    %rax,%rdi
  402007:	e8 0a 02 00 00       	callq  402216 <icmp_send_packet>
  40200c:	bf 90 66 60 00       	mov    $0x606690,%edi
  402011:	e8 ca f2 ff ff       	callq  4012e0 <pthread_mutex_lock@plt>
  402016:	48 8b 45 e8          	mov    -0x18(%rbp),%rax
  40201a:	48 89 c7             	mov    %rax,%rdi
  40201d:	e8 6f f9 ff ff       	callq  401991 <list_delete_entry>
  402022:	48 8b 45 e8          	mov    -0x18(%rbp),%rax
  402026:	48 89 c7             	mov    %rax,%rdi
  402029:	e8 e2 ef ff ff       	callq  401010 <free@plt>
  40202e:	48 8b 45 f0          	mov    -0x10(%rbp),%rax
  402032:	48 89 45 e8          	mov    %rax,-0x18(%rbp)
  402036:	48 8b 45 e8          	mov    -0x18(%rbp),%rax
  40203a:	48 8b 00             	mov    (%rax),%rax
  40203d:	48 89 45 f0          	mov    %rax,-0x10(%rbp)
  402041:	48 8b 45 e8          	mov    -0x18(%rbp),%rax
  402045:	48 8b 55 d8          	mov    -0x28(%rbp),%rdx
  402049:	48 83 c2 30          	add    $0x30,%rdx
  40204d:	48 39 d0             	cmp    %rdx,%rax
  402050:	75 8f                	jne    401fe1 <arpcache_sweep+0xcc>
  402052:	eb 57                	jmp    4020ab <arpcache_sweep+0x196>
  402054:	48 8b 45 d8          	mov    -0x28(%rbp),%rax
  402058:	48 8b 40 20          	mov    0x20(%rax),%rax
  40205c:	48 8b 55 f8          	mov    -0x8(%rbp),%rdx
  402060:	48 29 c2             	sub    %rax,%rdx
  402063:	48 89 d0             	mov    %rdx,%rax
  402066:	48 83 f8 01          	cmp    $0x1,%rax
  40206a:	7e 3f                	jle    4020ab <arpcache_sweep+0x196>
  40206c:	48 8b 45 d8          	mov    -0x28(%rbp),%rax
  402070:	8b 50 18             	mov    0x18(%rax),%edx
  402073:	48 8b 45 d8          	mov    -0x28(%rbp),%rax
  402077:	48 8b 40 10          	mov    0x10(%rax),%rax
  40207b:	89 d6                	mov    %edx,%esi
  40207d:	48 89 c7             	mov    %rax,%rdi
  402080:	e8 91 f3 ff ff       	callq  401416 <arp_send_request>
  402085:	bf 00 00 00 00       	mov    $0x0,%edi
  40208a:	e8 21 f1 ff ff       	callq  4011b0 <time@plt>
  40208f:	48 89 c2             	mov    %rax,%rdx
  402092:	48 8b 45 d8          	mov    -0x28(%rbp),%rax
  402096:	48 89 50 20          	mov    %rdx,0x20(%rax)
  40209a:	48 8b 45 d8          	mov    -0x28(%rbp),%rax
  40209e:	8b 40 28             	mov    0x28(%rax),%eax
  4020a1:	8d 50 01             	lea    0x1(%rax),%edx
  4020a4:	48 8b 45 d8          	mov    -0x28(%rbp),%rax
  4020a8:	89 50 28             	mov    %edx,0x28(%rax)
  4020ab:	48 8b 45 e0          	mov    -0x20(%rbp),%rax
  4020af:	48 89 45 d8          	mov    %rax,-0x28(%rbp)
  4020b3:	48 8b 45 d8          	mov    -0x28(%rbp),%rax
  4020b7:	48 8b 00             	mov    (%rax),%rax
  4020ba:	48 89 45 e0          	mov    %rax,-0x20(%rbp)
  4020be:	48 8b 45 d8          	mov    -0x28(%rbp),%rax
  4020c2:	48 3d 80 66 60 00    	cmp    $0x606680,%rax
  4020c8:	0f 85 e2 fe ff ff    	jne    401fb0 <arpcache_sweep+0x9b>
  4020ce:	bf 90 66 60 00       	mov    $0x606690,%edi
  4020d3:	e8 e8 f0 ff ff       	callq  4011c0 <pthread_mutex_unlock@plt>
  4020d8:	e9 44 fe ff ff       	jmpq   401f21 <arpcache_sweep+0xc>

00000000004020dd <checksum>:
  4020dd:	55                   	push   %rbp
  4020de:	48 89 e5             	mov    %rsp,%rbp
  4020e1:	48 83 ec 10          	sub    $0x10,%rsp
  4020e5:	48 89 7d f8          	mov    %rdi,-0x8(%rbp)
  4020e9:	89 75 f4             	mov    %esi,-0xc(%rbp)
  4020ec:	89 55 f0             	mov    %edx,-0x10(%rbp)
  4020ef:	8b 45 f4             	mov    -0xc(%rbp),%eax
  4020f2:	83 e0 01             	and    $0x1,%eax
  4020f5:	85 c0                	test   %eax,%eax
  4020f7:	74 32                	je     40212b <checksum+0x4e>
  4020f9:	b9 a0 44 40 00       	mov    $0x4044a0,%ecx
  4020fe:	ba 0b 00 00 00       	mov    $0xb,%edx
  402103:	be e8 43 40 00       	mov    $0x4043e8,%esi
  402108:	bf fb 43 40 00       	mov    $0x4043fb,%edi
  40210d:	e8 de ef ff ff       	callq  4010f0 <__assert_fail@plt>
  402112:	48 8b 45 f8          	mov    -0x8(%rbp),%rax
  402116:	48 8d 50 02          	lea    0x2(%rax),%rdx
  40211a:	48 89 55 f8          	mov    %rdx,-0x8(%rbp)
  40211e:	0f b7 00             	movzwl (%rax),%eax
  402121:	0f b7 c0             	movzwl %ax,%eax
  402124:	01 45 f0             	add    %eax,-0x10(%rbp)
  402127:	83 6d f4 02          	subl   $0x2,-0xc(%rbp)
  40212b:	83 7d f4 01          	cmpl   $0x1,-0xc(%rbp)
  40212f:	7f e1                	jg     402112 <checksum+0x35>
  402131:	8b 45 f0             	mov    -0x10(%rbp),%eax
  402134:	c1 e8 10             	shr    $0x10,%eax
  402137:	89 c2                	mov    %eax,%edx
  402139:	8b 45 f0             	mov    -0x10(%rbp),%eax
  40213c:	0f b7 c0             	movzwl %ax,%eax
  40213f:	01 d0                	add    %edx,%eax
  402141:	89 45 f0             	mov    %eax,-0x10(%rbp)
  402144:	8b 45 f0             	mov    -0x10(%rbp),%eax
  402147:	c1 e8 10             	shr    $0x10,%eax
  40214a:	01 45 f0             	add    %eax,-0x10(%rbp)
  40214d:	8b 45 f0             	mov    -0x10(%rbp),%eax
  402150:	f7 d0                	not    %eax
  402152:	c9                   	leaveq 
  402153:	c3                   	retq   

0000000000402154 <icmp_checksum>:
  402154:	55                   	push   %rbp
  402155:	48 89 e5             	mov    %rsp,%rbp
  402158:	48 83 ec 20          	sub    $0x20,%rsp
  40215c:	48 89 7d e8          	mov    %rdi,-0x18(%rbp)
  402160:	89 75 e4             	mov    %esi,-0x1c(%rbp)
  402163:	48 8b 45 e8          	mov    -0x18(%rbp),%rax
  402167:	0f b7 40 02          	movzwl 0x2(%rax),%eax
  40216b:	66 89 45 fc          	mov    %ax,-0x4(%rbp)
  40216f:	48 8b 45 e8          	mov    -0x18(%rbp),%rax
  402173:	66 c7 40 02 00 00    	movw   $0x0,0x2(%rax)
  402179:	8b 4d e4             	mov    -0x1c(%rbp),%ecx
  40217c:	48 8b 45 e8          	mov    -0x18(%rbp),%rax
  402180:	ba 00 00 00 00       	mov    $0x0,%edx
  402185:	89 ce                	mov    %ecx,%esi
  402187:	48 89 c7             	mov    %rax,%rdi
  40218a:	e8 4e ff ff ff       	callq  4020dd <checksum>
  40218f:	66 89 45 fe          	mov    %ax,-0x2(%rbp)
  402193:	48 8b 45 e8          	mov    -0x18(%rbp),%rax
  402197:	0f b7 55 fc          	movzwl -0x4(%rbp),%edx
  40219b:	66 89 50 02          	mov    %dx,0x2(%rax)
  40219f:	0f b7 45 fe          	movzwl -0x2(%rbp),%eax
  4021a3:	c9                   	leaveq 
  4021a4:	c3                   	retq   

00000000004021a5 <ip_checksum>:
  4021a5:	55                   	push   %rbp
  4021a6:	48 89 e5             	mov    %rsp,%rbp
  4021a9:	48 83 ec 20          	sub    $0x20,%rsp
  4021ad:	48 89 7d e8          	mov    %rdi,-0x18(%rbp)
  4021b1:	48 8b 45 e8          	mov    -0x18(%rbp),%rax
  4021b5:	0f b7 40 0a          	movzwl 0xa(%rax),%eax
  4021b9:	66 89 45 fc          	mov    %ax,-0x4(%rbp)
  4021bd:	48 8b 45 e8          	mov    -0x18(%rbp),%rax
  4021c1:	66 c7 40 0a 00 00    	movw   $0x0,0xa(%rax)
  4021c7:	48 8b 45 e8          	mov    -0x18(%rbp),%rax
  4021cb:	0f b6 00             	movzbl (%rax),%eax
  4021ce:	83 e0 0f             	and    $0xf,%eax
  4021d1:	0f b6 c0             	movzbl %al,%eax
  4021d4:	8d 0c 85 00 00 00 00 	lea    0x0(,%rax,4),%ecx
  4021db:	48 8b 45 e8          	mov    -0x18(%rbp),%rax
  4021df:	ba 00 00 00 00       	mov    $0x0,%edx
  4021e4:	89 ce                	mov    %ecx,%esi
  4021e6:	48 89 c7             	mov    %rax,%rdi
  4021e9:	e8 ef fe ff ff       	callq  4020dd <checksum>
  4021ee:	66 89 45 fe          	mov    %ax,-0x2(%rbp)
  4021f2:	48 8b 45 e8          	mov    -0x18(%rbp),%rax
  4021f6:	0f b7 55 fc          	movzwl -0x4(%rbp),%edx
  4021fa:	66 89 50 0a          	mov    %dx,0xa(%rax)
  4021fe:	0f b7 45 fe          	movzwl -0x2(%rbp),%eax
  402202:	c9                   	leaveq 
  402203:	c3                   	retq   

0000000000402204 <packet_to_ip_hdr>:
  402204:	55                   	push   %rbp
  402205:	48 89 e5             	mov    %rsp,%rbp
  402208:	48 89 7d f8          	mov    %rdi,-0x8(%rbp)
  40220c:	48 8b 45 f8          	mov    -0x8(%rbp),%rax
  402210:	48 83 c0 0e          	add    $0xe,%rax
  402214:	5d                   	pop    %rbp
  402215:	c3                   	retq   

0000000000402216 <icmp_send_packet>:
  402216:	55                   	push   %rbp
  402217:	48 89 e5             	mov    %rsp,%rbp
  40221a:	48 83 ec 70          	sub    $0x70,%rsp
  40221e:	48 89 7d a8          	mov    %rdi,-0x58(%rbp)
  402222:	89 75 a4             	mov    %esi,-0x5c(%rbp)
  402225:	89 c8                	mov    %ecx,%eax
  402227:	88 55 a0             	mov    %dl,-0x60(%rbp)
  40222a:	88 45 9c             	mov    %al,-0x64(%rbp)
  40222d:	64 48 8b 04 25 28 00 	mov    %fs:0x28,%rax
  402234:	00 00 
  402236:	48 89 45 f8          	mov    %rax,-0x8(%rbp)
  40223a:	31 c0                	xor    %eax,%eax
  40223c:	48 8b 45 a8          	mov    -0x58(%rbp),%rax
  402240:	48 89 c7             	mov    %rax,%rdi
  402243:	e8 bc ff ff ff       	callq  402204 <packet_to_ip_hdr>
  402248:	48 89 45 c0          	mov    %rax,-0x40(%rbp)
  40224c:	80 7d a0 00          	cmpb   $0x0,-0x60(%rbp)
  402250:	74 16                	je     402268 <icmp_send_packet+0x52>
  402252:	48 8b 45 c0          	mov    -0x40(%rbp),%rax
  402256:	0f b6 00             	movzbl (%rax),%eax
  402259:	83 e0 0f             	and    $0xf,%eax
  40225c:	0f b6 c0             	movzbl %al,%eax
  40225f:	c1 e0 03             	shl    $0x3,%eax
  402262:	83 c0 1e             	add    $0x1e,%eax
  402265:	89 45 a4             	mov    %eax,-0x5c(%rbp)
  402268:	8b 45 a4             	mov    -0x5c(%rbp),%eax
  40226b:	48 98                	cltq   
  40226d:	48 89 c7             	mov    %rax,%rdi
  402270:	e8 5b ef ff ff       	callq  4011d0 <malloc@plt>
  402275:	48 89 45 c8          	mov    %rax,-0x38(%rbp)
  402279:	48 8b 45 c8          	mov    -0x38(%rbp),%rax
  40227d:	48 89 45 d0          	mov    %rax,-0x30(%rbp)
  402281:	48 8b 45 a8          	mov    -0x58(%rbp),%rax
  402285:	48 89 45 d8          	mov    %rax,-0x28(%rbp)
  402289:	48 8b 45 d8          	mov    -0x28(%rbp),%rax
  40228d:	48 8d 48 06          	lea    0x6(%rax),%rcx
  402291:	48 8b 45 d0          	mov    -0x30(%rbp),%rax
  402295:	ba 06 00 00 00       	mov    $0x6,%edx
  40229a:	48 89 ce             	mov    %rcx,%rsi
  40229d:	48 89 c7             	mov    %rax,%rdi
  4022a0:	e8 fb ee ff ff       	callq  4011a0 <memcpy@plt>
  4022a5:	48 8b 45 d8          	mov    -0x28(%rbp),%rax
  4022a9:	48 8b 55 d0          	mov    -0x30(%rbp),%rdx
  4022ad:	48 8d 4a 06          	lea    0x6(%rdx),%rcx
  4022b1:	ba 06 00 00 00       	mov    $0x6,%edx
  4022b6:	48 89 c6             	mov    %rax,%rsi
  4022b9:	48 89 cf             	mov    %rcx,%rdi
  4022bc:	e8 df ee ff ff       	callq  4011a0 <memcpy@plt>
  4022c1:	48 8b 45 d8          	mov    -0x28(%rbp),%rax
  4022c5:	0f b7 50 0c          	movzwl 0xc(%rax),%edx
  4022c9:	48 8b 45 d0          	mov    -0x30(%rbp),%rax
  4022cd:	66 89 50 0c          	mov    %dx,0xc(%rax)
  4022d1:	48 8b 45 c8          	mov    -0x38(%rbp),%rax
  4022d5:	48 89 c7             	mov    %rax,%rdi
  4022d8:	e8 27 ff ff ff       	callq  402204 <packet_to_ip_hdr>
  4022dd:	48 89 45 e0          	mov    %rax,-0x20(%rbp)
  4022e1:	48 8b 45 c0          	mov    -0x40(%rbp),%rax
  4022e5:	0f b6 00             	movzbl (%rax),%eax
  4022e8:	83 e0 0f             	and    $0xf,%eax
  4022eb:	0f b6 c0             	movzbl %al,%eax
  4022ee:	c1 e0 02             	shl    $0x2,%eax
  4022f1:	48 63 d0             	movslq %eax,%rdx
  4022f4:	48 8b 4d c0          	mov    -0x40(%rbp),%rcx
  4022f8:	48 8b 45 e0          	mov    -0x20(%rbp),%rax
  4022fc:	48 89 ce             	mov    %rcx,%rsi
  4022ff:	48 89 c7             	mov    %rax,%rdi
  402302:	e8 99 ee ff ff       	callq  4011a0 <memcpy@plt>
  402307:	8b 45 a4             	mov    -0x5c(%rbp),%eax
  40230a:	83 e8 0e             	sub    $0xe,%eax
  40230d:	0f b7 c0             	movzwl %ax,%eax
  402310:	89 c7                	mov    %eax,%edi
  402312:	e8 a9 ed ff ff       	callq  4010c0 <htons@plt>
  402317:	89 c2                	mov    %eax,%edx
  402319:	48 8b 45 e0          	mov    -0x20(%rbp),%rax
  40231d:	66 89 50 02          	mov    %dx,0x2(%rax)
  402321:	48 8b 45 c0          	mov    -0x40(%rbp),%rax
  402325:	8b 50 10             	mov    0x10(%rax),%edx
  402328:	48 8b 45 e0          	mov    -0x20(%rbp),%rax
  40232c:	89 50 0c             	mov    %edx,0xc(%rax)
  40232f:	48 8b 45 c0          	mov    -0x40(%rbp),%rax
  402333:	8b 50 0c             	mov    0xc(%rax),%edx
  402336:	48 8b 45 e0          	mov    -0x20(%rbp),%rax
  40233a:	89 50 10             	mov    %edx,0x10(%rax)
  40233d:	48 8b 45 e0          	mov    -0x20(%rbp),%rax
  402341:	48 89 c7             	mov    %rax,%rdi
  402344:	e8 5c fe ff ff       	callq  4021a5 <ip_checksum>
  402349:	89 c2                	mov    %eax,%edx
  40234b:	48 8b 45 e0          	mov    -0x20(%rbp),%rax
  40234f:	66 89 50 0a          	mov    %dx,0xa(%rax)
  402353:	48 8b 45 e0          	mov    -0x20(%rbp),%rax
  402357:	0f b6 00             	movzbl (%rax),%eax
  40235a:	83 e0 0f             	and    $0xf,%eax
  40235d:	0f b6 c0             	movzbl %al,%eax
  402360:	c1 e0 02             	shl    $0x2,%eax
  402363:	48 63 d0             	movslq %eax,%rdx
  402366:	48 8b 45 e0          	mov    -0x20(%rbp),%rax
  40236a:	48 01 d0             	add    %rdx,%rax
  40236d:	48 89 45 e8          	mov    %rax,-0x18(%rbp)
  402371:	48 8b 45 c0          	mov    -0x40(%rbp),%rax
  402375:	0f b6 00             	movzbl (%rax),%eax
  402378:	83 e0 0f             	and    $0xf,%eax
  40237b:	0f b6 c0             	movzbl %al,%eax
  40237e:	c1 e0 02             	shl    $0x2,%eax
  402381:	48 63 d0             	movslq %eax,%rdx
  402384:	48 8b 45 c0          	mov    -0x40(%rbp),%rax
  402388:	48 01 d0             	add    %rdx,%rax
  40238b:	48 89 45 f0          	mov    %rax,-0x10(%rbp)
  40238f:	48 8b 45 e0          	mov    -0x20(%rbp),%rax
  402393:	0f b7 40 02          	movzwl 0x2(%rax),%eax
  402397:	0f b7 c0             	movzwl %ax,%eax
  40239a:	89 c7                	mov    %eax,%edi
  40239c:	e8 5f ee ff ff       	callq  401200 <ntohs@plt>
  4023a1:	0f b7 d0             	movzwl %ax,%edx
  4023a4:	48 8b 45 e0          	mov    -0x20(%rbp),%rax
  4023a8:	0f b6 00             	movzbl (%rax),%eax
  4023ab:	83 e0 0f             	and    $0xf,%eax
  4023ae:	0f b6 c0             	movzbl %al,%eax
  4023b1:	c1 e0 02             	shl    $0x2,%eax
  4023b4:	29 c2                	sub    %eax,%edx
  4023b6:	89 d0                	mov    %edx,%eax
  4023b8:	89 45 b8             	mov    %eax,-0x48(%rbp)
  4023bb:	8b 45 b8             	mov    -0x48(%rbp),%eax
  4023be:	83 e8 08             	sub    $0x8,%eax
  4023c1:	89 45 bc             	mov    %eax,-0x44(%rbp)
  4023c4:	0f b6 45 a0          	movzbl -0x60(%rbp),%eax
  4023c8:	83 f8 03             	cmp    $0x3,%eax
  4023cb:	74 79                	je     402446 <icmp_send_packet+0x230>
  4023cd:	83 f8 0b             	cmp    $0xb,%eax
  4023d0:	0f 84 1a 01 00 00    	je     4024f0 <icmp_send_packet+0x2da>
  4023d6:	85 c0                	test   %eax,%eax
  4023d8:	74 05                	je     4023df <icmp_send_packet+0x1c9>
  4023da:	e9 8f 01 00 00       	jmpq   40256e <icmp_send_packet+0x358>
  4023df:	0f b6 45 a0          	movzbl -0x60(%rbp),%eax
  4023e3:	89 c7                	mov    %eax,%edi
  4023e5:	e8 d6 ec ff ff       	callq  4010c0 <htons@plt>
  4023ea:	89 c2                	mov    %eax,%edx
  4023ec:	48 8b 45 e8          	mov    -0x18(%rbp),%rax
  4023f0:	88 10                	mov    %dl,(%rax)
  4023f2:	0f b6 45 9c          	movzbl -0x64(%rbp),%eax
  4023f6:	89 c7                	mov    %eax,%edi
  4023f8:	e8 c3 ec ff ff       	callq  4010c0 <htons@plt>
  4023fd:	89 c2                	mov    %eax,%edx
  4023ff:	48 8b 45 e8          	mov    -0x18(%rbp),%rax
  402403:	88 50 01             	mov    %dl,0x1(%rax)
  402406:	8b 45 bc             	mov    -0x44(%rbp),%eax
  402409:	48 98                	cltq   
  40240b:	48 8b 55 f0          	mov    -0x10(%rbp),%rdx
  40240f:	48 8d 72 04          	lea    0x4(%rdx),%rsi
  402413:	48 8b 55 e8          	mov    -0x18(%rbp),%rdx
  402417:	48 8d 4a 04          	lea    0x4(%rdx),%rcx
  40241b:	48 89 c2             	mov    %rax,%rdx
  40241e:	48 89 cf             	mov    %rcx,%rdi
  402421:	e8 7a ed ff ff       	callq  4011a0 <memcpy@plt>
  402426:	8b 55 b8             	mov    -0x48(%rbp),%edx
  402429:	48 8b 45 e8          	mov    -0x18(%rbp),%rax
  40242d:	89 d6                	mov    %edx,%esi
  40242f:	48 89 c7             	mov    %rax,%rdi
  402432:	e8 1d fd ff ff       	callq  402154 <icmp_checksum>
  402437:	89 c2                	mov    %eax,%edx
  402439:	48 8b 45 e8          	mov    -0x18(%rbp),%rax
  40243d:	66 89 50 02          	mov    %dx,0x2(%rax)
  402441:	e9 28 01 00 00       	jmpq   40256e <icmp_send_packet+0x358>
  402446:	bf 28 44 40 00       	mov    $0x404428,%edi
  40244b:	e8 10 ec ff ff       	callq  401060 <puts@plt>
  402450:	bf 28 44 40 00       	mov    $0x404428,%edi
  402455:	e8 06 ec ff ff       	callq  401060 <puts@plt>
  40245a:	48 8b 45 e0          	mov    -0x20(%rbp),%rax
  40245e:	8b 40 10             	mov    0x10(%rax),%eax
  402461:	89 c7                	mov    %eax,%edi
  402463:	e8 28 ee ff ff       	callq  401290 <ntohl@plt>
  402468:	89 45 b4             	mov    %eax,-0x4c(%rbp)
  40246b:	8b 05 4f 42 20 00    	mov    0x20424f(%rip),%eax        # 6066c0 <this_log_level>
  402471:	85 c0                	test   %eax,%eax
  402473:	75 66                	jne    4024db <icmp_send_packet+0x2c5>
  402475:	48 8d 45 b4          	lea    -0x4c(%rbp),%rax
  402479:	0f b6 00             	movzbl (%rax),%eax
  40247c:	0f b6 f0             	movzbl %al,%esi
  40247f:	48 8d 45 b4          	lea    -0x4c(%rbp),%rax
  402483:	48 83 c0 01          	add    $0x1,%rax
  402487:	0f b6 00             	movzbl (%rax),%eax
  40248a:	44 0f b6 c0          	movzbl %al,%r8d
  40248e:	48 8d 45 b4          	lea    -0x4c(%rbp),%rax
  402492:	48 83 c0 02          	add    $0x2,%rax
  402496:	0f b6 00             	movzbl (%rax),%eax
  402499:	0f b6 f8             	movzbl %al,%edi
  40249c:	48 8d 45 b4          	lea    -0x4c(%rbp),%rax
  4024a0:	48 83 c0 03          	add    $0x3,%rax
  4024a4:	0f b6 00             	movzbl (%rax),%eax
  4024a7:	0f b6 c8             	movzbl %al,%ecx
  4024aa:	48 8b 15 2f 3d 20 00 	mov    0x203d2f(%rip),%rdx        # 6061e0 <log_level_str>
  4024b1:	48 8b 05 a8 3d 20 00 	mov    0x203da8(%rip),%rax        # 606260 <stderr@@GLIBC_2.2.5>
  4024b8:	48 83 ec 08          	sub    $0x8,%rsp
  4024bc:	56                   	push   %rsi
  4024bd:	45 89 c1             	mov    %r8d,%r9d
  4024c0:	41 89 f8             	mov    %edi,%r8d
  4024c3:	be 58 44 40 00       	mov    $0x404458,%esi
  4024c8:	48 89 c7             	mov    %rax,%rdi
  4024cb:	b8 00 00 00 00       	mov    $0x0,%eax
  4024d0:	e8 bb ec ff ff       	callq  401190 <fprintf@plt>
  4024d5:	48 83 c4 10          	add    $0x10,%rsp
  4024d9:	eb 01                	jmp    4024dc <icmp_send_packet+0x2c6>
  4024db:	90                   	nop
  4024dc:	b8 00 00 00 00       	mov    $0x0,%eax
  4024e1:	e8 22 16 00 00       	callq  403b08 <print_rtable>
  4024e6:	bf 88 44 40 00       	mov    $0x404488,%edi
  4024eb:	e8 70 eb ff ff       	callq  401060 <puts@plt>
  4024f0:	0f b6 45 a0          	movzbl -0x60(%rbp),%eax
  4024f4:	89 c7                	mov    %eax,%edi
  4024f6:	e8 c5 eb ff ff       	callq  4010c0 <htons@plt>
  4024fb:	89 c2                	mov    %eax,%edx
  4024fd:	48 8b 45 e8          	mov    -0x18(%rbp),%rax
  402501:	88 10                	mov    %dl,(%rax)
  402503:	0f b6 45 9c          	movzbl -0x64(%rbp),%eax
  402507:	89 c7                	mov    %eax,%edi
  402509:	e8 b2 eb ff ff       	callq  4010c0 <htons@plt>
  40250e:	89 c2                	mov    %eax,%edx
  402510:	48 8b 45 e8          	mov    -0x18(%rbp),%rax
  402514:	88 50 01             	mov    %dl,0x1(%rax)
  402517:	48 8b 45 e8          	mov    -0x18(%rbp),%rax
  40251b:	48 83 c0 04          	add    $0x4,%rax
  40251f:	ba 04 00 00 00       	mov    $0x4,%edx
  402524:	be 00 00 00 00       	mov    $0x0,%esi
  402529:	48 89 c7             	mov    %rax,%rdi
  40252c:	e8 df eb ff ff       	callq  401110 <memset@plt>
  402531:	8b 45 bc             	mov    -0x44(%rbp),%eax
  402534:	48 63 d0             	movslq %eax,%rdx
  402537:	48 8b 45 e8          	mov    -0x18(%rbp),%rax
  40253b:	48 83 c0 04          	add    $0x4,%rax
  40253f:	48 8d 48 10          	lea    0x10(%rax),%rcx
  402543:	48 8b 45 c0          	mov    -0x40(%rbp),%rax
  402547:	48 89 c6             	mov    %rax,%rsi
  40254a:	48 89 cf             	mov    %rcx,%rdi
  40254d:	e8 4e ec ff ff       	callq  4011a0 <memcpy@plt>
  402552:	8b 55 b8             	mov    -0x48(%rbp),%edx
  402555:	48 8b 45 e8          	mov    -0x18(%rbp),%rax
  402559:	89 d6                	mov    %edx,%esi
  40255b:	48 89 c7             	mov    %rax,%rdi
  40255e:	e8 f1 fb ff ff       	callq  402154 <icmp_checksum>
  402563:	89 c2                	mov    %eax,%edx
  402565:	48 8b 45 e8          	mov    -0x18(%rbp),%rax
  402569:	66 89 50 02          	mov    %dx,0x2(%rax)
  40256d:	90                   	nop
  40256e:	8b 55 a4             	mov    -0x5c(%rbp),%edx
  402571:	48 8b 45 c8          	mov    -0x38(%rbp),%rax
  402575:	89 d6                	mov    %edx,%esi
  402577:	48 89 c7             	mov    %rax,%rdi
  40257a:	e8 84 05 00 00       	callq  402b03 <ip_send_packet>
  40257f:	90                   	nop
  402580:	48 8b 45 f8          	mov    -0x8(%rbp),%rax
  402584:	64 48 33 04 25 28 00 	xor    %fs:0x28,%rax
  40258b:	00 00 
  40258d:	74 05                	je     402594 <icmp_send_packet+0x37e>
  40258f:	e8 0c eb ff ff       	callq  4010a0 <__stack_chk_fail@plt>
  402594:	c9                   	leaveq 
  402595:	c3                   	retq   

0000000000402596 <checksum>:
  402596:	55                   	push   %rbp
  402597:	48 89 e5             	mov    %rsp,%rbp
  40259a:	48 83 ec 10          	sub    $0x10,%rsp
  40259e:	48 89 7d f8          	mov    %rdi,-0x8(%rbp)
  4025a2:	89 75 f4             	mov    %esi,-0xc(%rbp)
  4025a5:	89 55 f0             	mov    %edx,-0x10(%rbp)
  4025a8:	8b 45 f4             	mov    -0xc(%rbp),%eax
  4025ab:	83 e0 01             	and    $0x1,%eax
  4025ae:	85 c0                	test   %eax,%eax
  4025b0:	74 32                	je     4025e4 <checksum+0x4e>
  4025b2:	b9 20 46 40 00       	mov    $0x404620,%ecx
  4025b7:	ba 0b 00 00 00       	mov    $0xb,%edx
  4025bc:	be b0 44 40 00       	mov    $0x4044b0,%esi
  4025c1:	bf c3 44 40 00       	mov    $0x4044c3,%edi
  4025c6:	e8 25 eb ff ff       	callq  4010f0 <__assert_fail@plt>
  4025cb:	48 8b 45 f8          	mov    -0x8(%rbp),%rax
  4025cf:	48 8d 50 02          	lea    0x2(%rax),%rdx
  4025d3:	48 89 55 f8          	mov    %rdx,-0x8(%rbp)
  4025d7:	0f b7 00             	movzwl (%rax),%eax
  4025da:	0f b7 c0             	movzwl %ax,%eax
  4025dd:	01 45 f0             	add    %eax,-0x10(%rbp)
  4025e0:	83 6d f4 02          	subl   $0x2,-0xc(%rbp)
  4025e4:	83 7d f4 01          	cmpl   $0x1,-0xc(%rbp)
  4025e8:	7f e1                	jg     4025cb <checksum+0x35>
  4025ea:	8b 45 f0             	mov    -0x10(%rbp),%eax
  4025ed:	c1 e8 10             	shr    $0x10,%eax
  4025f0:	89 c2                	mov    %eax,%edx
  4025f2:	8b 45 f0             	mov    -0x10(%rbp),%eax
  4025f5:	0f b7 c0             	movzwl %ax,%eax
  4025f8:	01 d0                	add    %edx,%eax
  4025fa:	89 45 f0             	mov    %eax,-0x10(%rbp)
  4025fd:	8b 45 f0             	mov    -0x10(%rbp),%eax
  402600:	c1 e8 10             	shr    $0x10,%eax
  402603:	01 45 f0             	add    %eax,-0x10(%rbp)
  402606:	8b 45 f0             	mov    -0x10(%rbp),%eax
  402609:	f7 d0                	not    %eax
  40260b:	c9                   	leaveq 
  40260c:	c3                   	retq   

000000000040260d <ip_checksum>:
  40260d:	55                   	push   %rbp
  40260e:	48 89 e5             	mov    %rsp,%rbp
  402611:	48 83 ec 20          	sub    $0x20,%rsp
  402615:	48 89 7d e8          	mov    %rdi,-0x18(%rbp)
  402619:	48 8b 45 e8          	mov    -0x18(%rbp),%rax
  40261d:	0f b7 40 0a          	movzwl 0xa(%rax),%eax
  402621:	66 89 45 fc          	mov    %ax,-0x4(%rbp)
  402625:	48 8b 45 e8          	mov    -0x18(%rbp),%rax
  402629:	66 c7 40 0a 00 00    	movw   $0x0,0xa(%rax)
  40262f:	48 8b 45 e8          	mov    -0x18(%rbp),%rax
  402633:	0f b6 00             	movzbl (%rax),%eax
  402636:	83 e0 0f             	and    $0xf,%eax
  402639:	0f b6 c0             	movzbl %al,%eax
  40263c:	8d 0c 85 00 00 00 00 	lea    0x0(,%rax,4),%ecx
  402643:	48 8b 45 e8          	mov    -0x18(%rbp),%rax
  402647:	ba 00 00 00 00       	mov    $0x0,%edx
  40264c:	89 ce                	mov    %ecx,%esi
  40264e:	48 89 c7             	mov    %rax,%rdi
  402651:	e8 40 ff ff ff       	callq  402596 <checksum>
  402656:	66 89 45 fe          	mov    %ax,-0x2(%rbp)
  40265a:	48 8b 45 e8          	mov    -0x18(%rbp),%rax
  40265e:	0f b7 55 fc          	movzwl -0x4(%rbp),%edx
  402662:	66 89 50 0a          	mov    %dx,0xa(%rax)
  402666:	0f b7 45 fe          	movzwl -0x2(%rbp),%eax
  40266a:	c9                   	leaveq 
  40266b:	c3                   	retq   

000000000040266c <packet_to_ip_hdr>:
  40266c:	55                   	push   %rbp
  40266d:	48 89 e5             	mov    %rsp,%rbp
  402670:	48 89 7d f8          	mov    %rdi,-0x8(%rbp)
  402674:	48 8b 45 f8          	mov    -0x8(%rbp),%rax
  402678:	48 83 c0 0e          	add    $0xe,%rax
  40267c:	5d                   	pop    %rbp
  40267d:	c3                   	retq   

000000000040267e <ip_init_hdr>:
  40267e:	55                   	push   %rbp
  40267f:	48 89 e5             	mov    %rsp,%rbp
  402682:	48 83 ec 20          	sub    $0x20,%rsp
  402686:	48 89 7d f8          	mov    %rdi,-0x8(%rbp)
  40268a:	89 75 f4             	mov    %esi,-0xc(%rbp)
  40268d:	89 55 f0             	mov    %edx,-0x10(%rbp)
  402690:	89 c8                	mov    %ecx,%eax
  402692:	44 89 c2             	mov    %r8d,%edx
  402695:	66 89 45 ec          	mov    %ax,-0x14(%rbp)
  402699:	88 55 e8             	mov    %dl,-0x18(%rbp)
  40269c:	48 8b 45 f8          	mov    -0x8(%rbp),%rax
  4026a0:	0f b6 10             	movzbl (%rax),%edx
  4026a3:	83 e2 0f             	and    $0xf,%edx
  4026a6:	83 ca 40             	or     $0x40,%edx
  4026a9:	88 10                	mov    %dl,(%rax)
  4026ab:	48 8b 45 f8          	mov    -0x8(%rbp),%rax
  4026af:	0f b6 10             	movzbl (%rax),%edx
  4026b2:	83 e2 f0             	and    $0xfffffff0,%edx
  4026b5:	83 ca 05             	or     $0x5,%edx
  4026b8:	88 10                	mov    %dl,(%rax)
  4026ba:	48 8b 45 f8          	mov    -0x8(%rbp),%rax
  4026be:	c6 40 01 00          	movb   $0x0,0x1(%rax)
  4026c2:	0f b7 45 ec          	movzwl -0x14(%rbp),%eax
  4026c6:	89 c7                	mov    %eax,%edi
  4026c8:	e8 f3 e9 ff ff       	callq  4010c0 <htons@plt>
  4026cd:	89 c2                	mov    %eax,%edx
  4026cf:	48 8b 45 f8          	mov    -0x8(%rbp),%rax
  4026d3:	66 89 50 02          	mov    %dx,0x2(%rax)
  4026d7:	e8 14 ec ff ff       	callq  4012f0 <rand@plt>
  4026dc:	89 c2                	mov    %eax,%edx
  4026de:	48 8b 45 f8          	mov    -0x8(%rbp),%rax
  4026e2:	66 89 50 04          	mov    %dx,0x4(%rax)
  4026e6:	bf 00 40 00 00       	mov    $0x4000,%edi
  4026eb:	e8 d0 e9 ff ff       	callq  4010c0 <htons@plt>
  4026f0:	89 c2                	mov    %eax,%edx
  4026f2:	48 8b 45 f8          	mov    -0x8(%rbp),%rax
  4026f6:	66 89 50 06          	mov    %dx,0x6(%rax)
  4026fa:	48 8b 45 f8          	mov    -0x8(%rbp),%rax
  4026fe:	c6 40 08 40          	movb   $0x40,0x8(%rax)
  402702:	48 8b 45 f8          	mov    -0x8(%rbp),%rax
  402706:	0f b6 55 e8          	movzbl -0x18(%rbp),%edx
  40270a:	88 50 09             	mov    %dl,0x9(%rax)
  40270d:	8b 45 f4             	mov    -0xc(%rbp),%eax
  402710:	89 c7                	mov    %eax,%edi
  402712:	e8 e9 e9 ff ff       	callq  401100 <htonl@plt>
  402717:	89 c2                	mov    %eax,%edx
  402719:	48 8b 45 f8          	mov    -0x8(%rbp),%rax
  40271d:	89 50 0c             	mov    %edx,0xc(%rax)
  402720:	8b 45 f0             	mov    -0x10(%rbp),%eax
  402723:	89 c7                	mov    %eax,%edi
  402725:	e8 d6 e9 ff ff       	callq  401100 <htonl@plt>
  40272a:	89 c2                	mov    %eax,%edx
  40272c:	48 8b 45 f8          	mov    -0x8(%rbp),%rax
  402730:	89 50 10             	mov    %edx,0x10(%rax)
  402733:	48 8b 45 f8          	mov    -0x8(%rbp),%rax
  402737:	48 89 c7             	mov    %rax,%rdi
  40273a:	e8 ce fe ff ff       	callq  40260d <ip_checksum>
  40273f:	89 c2                	mov    %eax,%edx
  402741:	48 8b 45 f8          	mov    -0x8(%rbp),%rax
  402745:	66 89 50 0a          	mov    %dx,0xa(%rax)
  402749:	90                   	nop
  40274a:	c9                   	leaveq 
  40274b:	c3                   	retq   

000000000040274c <longest_prefix_match>:
  40274c:	55                   	push   %rbp
  40274d:	48 89 e5             	mov    %rsp,%rbp
  402750:	89 7d dc             	mov    %edi,-0x24(%rbp)
  402753:	48 c7 45 f0 00 00 00 	movq   $0x0,-0x10(%rbp)
  40275a:	00 
  40275b:	48 c7 45 f8 00 00 00 	movq   $0x0,-0x8(%rbp)
  402762:	00 
  402763:	c7 45 e8 00 00 00 00 	movl   $0x0,-0x18(%rbp)
  40276a:	48 8b 05 6f 3f 20 00 	mov    0x203f6f(%rip),%rax        # 6066e0 <rtable>
  402771:	48 89 45 f0          	mov    %rax,-0x10(%rbp)
  402775:	eb 4b                	jmp    4027c2 <longest_prefix_match+0x76>
  402777:	48 8b 45 f0          	mov    -0x10(%rbp),%rax
  40277b:	8b 50 10             	mov    0x10(%rax),%edx
  40277e:	48 8b 45 f0          	mov    -0x10(%rbp),%rax
  402782:	8b 40 14             	mov    0x14(%rax),%eax
  402785:	21 d0                	and    %edx,%eax
  402787:	89 45 ec             	mov    %eax,-0x14(%rbp)
  40278a:	48 8b 45 f0          	mov    -0x10(%rbp),%rax
  40278e:	8b 40 14             	mov    0x14(%rax),%eax
  402791:	23 45 dc             	and    -0x24(%rbp),%eax
  402794:	3b 45 ec             	cmp    -0x14(%rbp),%eax
  402797:	75 1e                	jne    4027b7 <longest_prefix_match+0x6b>
  402799:	48 8b 45 f0          	mov    -0x10(%rbp),%rax
  40279d:	8b 40 14             	mov    0x14(%rax),%eax
  4027a0:	3b 45 e8             	cmp    -0x18(%rbp),%eax
  4027a3:	76 12                	jbe    4027b7 <longest_prefix_match+0x6b>
  4027a5:	48 8b 45 f0          	mov    -0x10(%rbp),%rax
  4027a9:	48 89 45 f8          	mov    %rax,-0x8(%rbp)
  4027ad:	48 8b 45 f0          	mov    -0x10(%rbp),%rax
  4027b1:	8b 40 14             	mov    0x14(%rax),%eax
  4027b4:	89 45 e8             	mov    %eax,-0x18(%rbp)
  4027b7:	48 8b 45 f0          	mov    -0x10(%rbp),%rax
  4027bb:	48 8b 00             	mov    (%rax),%rax
  4027be:	48 89 45 f0          	mov    %rax,-0x10(%rbp)
  4027c2:	48 8b 45 f0          	mov    -0x10(%rbp),%rax
  4027c6:	48 3d e0 66 60 00    	cmp    $0x6066e0,%rax
  4027cc:	75 a9                	jne    402777 <longest_prefix_match+0x2b>
  4027ce:	48 8b 45 f8          	mov    -0x8(%rbp),%rax
  4027d2:	5d                   	pop    %rbp
  4027d3:	c3                   	retq   

00000000004027d4 <ip_forward_packet>:
  4027d4:	55                   	push   %rbp
  4027d5:	48 89 e5             	mov    %rsp,%rbp
  4027d8:	48 83 ec 30          	sub    $0x30,%rsp
  4027dc:	89 7d dc             	mov    %edi,-0x24(%rbp)
  4027df:	48 89 75 d0          	mov    %rsi,-0x30(%rbp)
  4027e3:	89 55 d8             	mov    %edx,-0x28(%rbp)
  4027e6:	64 48 8b 04 25 28 00 	mov    %fs:0x28,%rax
  4027ed:	00 00 
  4027ef:	48 89 45 f8          	mov    %rax,-0x8(%rbp)
  4027f3:	31 c0                	xor    %eax,%eax
  4027f5:	8b 45 dc             	mov    -0x24(%rbp),%eax
  4027f8:	89 c7                	mov    %eax,%edi
  4027fa:	e8 4d ff ff ff       	callq  40274c <longest_prefix_match>
  4027ff:	48 89 45 e8          	mov    %rax,-0x18(%rbp)
  402803:	48 83 7d e8 00       	cmpq   $0x0,-0x18(%rbp)
  402808:	0f 85 90 00 00 00    	jne    40289e <ip_forward_packet+0xca>
  40280e:	8b 05 b0 3e 20 00    	mov    0x203eb0(%rip),%eax        # 6066c4 <this_log_level>
  402814:	83 f8 03             	cmp    $0x3,%eax
  402817:	77 66                	ja     40287f <ip_forward_packet+0xab>
  402819:	48 8d 45 dc          	lea    -0x24(%rbp),%rax
  40281d:	0f b6 00             	movzbl (%rax),%eax
  402820:	0f b6 f0             	movzbl %al,%esi
  402823:	48 8d 45 dc          	lea    -0x24(%rbp),%rax
  402827:	48 83 c0 01          	add    $0x1,%rax
  40282b:	0f b6 00             	movzbl (%rax),%eax
  40282e:	44 0f b6 c0          	movzbl %al,%r8d
  402832:	48 8d 45 dc          	lea    -0x24(%rbp),%rax
  402836:	48 83 c0 02          	add    $0x2,%rax
  40283a:	0f b6 00             	movzbl (%rax),%eax
  40283d:	0f b6 f8             	movzbl %al,%edi
  402840:	48 8d 45 dc          	lea    -0x24(%rbp),%rax
  402844:	48 83 c0 03          	add    $0x3,%rax
  402848:	0f b6 00             	movzbl (%rax),%eax
  40284b:	0f b6 c8             	movzbl %al,%ecx
  40284e:	48 8b 15 c3 39 20 00 	mov    0x2039c3(%rip),%rdx        # 606218 <log_level_str+0x18>
  402855:	48 8b 05 04 3a 20 00 	mov    0x203a04(%rip),%rax        # 606260 <stderr@@GLIBC_2.2.5>
  40285c:	48 83 ec 08          	sub    $0x8,%rsp
  402860:	56                   	push   %rsi
  402861:	45 89 c1             	mov    %r8d,%r9d
  402864:	41 89 f8             	mov    %edi,%r8d
  402867:	be f0 44 40 00       	mov    $0x4044f0,%esi
  40286c:	48 89 c7             	mov    %rax,%rdi
  40286f:	b8 00 00 00 00       	mov    $0x0,%eax
  402874:	e8 17 e9 ff ff       	callq  401190 <fprintf@plt>
  402879:	48 83 c4 10          	add    $0x10,%rsp
  40287d:	eb 01                	jmp    402880 <ip_forward_packet+0xac>
  40287f:	90                   	nop
  402880:	8b 75 d8             	mov    -0x28(%rbp),%esi
  402883:	48 8b 45 d0          	mov    -0x30(%rbp),%rax
  402887:	b9 00 00 00 00       	mov    $0x0,%ecx
  40288c:	ba 03 00 00 00       	mov    $0x3,%edx
  402891:	48 89 c7             	mov    %rax,%rdi
  402894:	e8 7d f9 ff ff       	callq  402216 <icmp_send_packet>
  402899:	e9 b5 01 00 00       	jmpq   402a53 <ip_forward_packet+0x27f>
  40289e:	48 8b 45 d0          	mov    -0x30(%rbp),%rax
  4028a2:	48 89 c7             	mov    %rax,%rdi
  4028a5:	e8 c2 fd ff ff       	callq  40266c <packet_to_ip_hdr>
  4028aa:	8b 40 0c             	mov    0xc(%rax),%eax
  4028ad:	89 c7                	mov    %eax,%edi
  4028af:	e8 dc e9 ff ff       	callq  401290 <ntohl@plt>
  4028b4:	89 45 e0             	mov    %eax,-0x20(%rbp)
  4028b7:	48 8d 45 dc          	lea    -0x24(%rbp),%rax
  4028bb:	0f b6 00             	movzbl (%rax),%eax
  4028be:	0f b6 f0             	movzbl %al,%esi
  4028c1:	48 8d 45 dc          	lea    -0x24(%rbp),%rax
  4028c5:	48 83 c0 01          	add    $0x1,%rax
  4028c9:	0f b6 00             	movzbl (%rax),%eax
  4028cc:	0f b6 c8             	movzbl %al,%ecx
  4028cf:	48 8d 45 dc          	lea    -0x24(%rbp),%rax
  4028d3:	48 83 c0 02          	add    $0x2,%rax
  4028d7:	0f b6 00             	movzbl (%rax),%eax
  4028da:	0f b6 d0             	movzbl %al,%edx
  4028dd:	48 8d 45 dc          	lea    -0x24(%rbp),%rax
  4028e1:	48 83 c0 03          	add    $0x3,%rax
  4028e5:	0f b6 00             	movzbl (%rax),%eax
  4028e8:	0f b6 c0             	movzbl %al,%eax
  4028eb:	41 89 f1             	mov    %esi,%r9d
  4028ee:	41 89 c8             	mov    %ecx,%r8d
  4028f1:	89 d1                	mov    %edx,%ecx
  4028f3:	89 c2                	mov    %eax,%edx
  4028f5:	be 4c 45 40 00       	mov    $0x40454c,%esi
  4028fa:	bf 65 45 40 00       	mov    $0x404565,%edi
  4028ff:	b8 00 00 00 00       	mov    $0x0,%eax
  402904:	e8 d7 e7 ff ff       	callq  4010e0 <printf@plt>
  402909:	48 8d 45 e0          	lea    -0x20(%rbp),%rax
  40290d:	0f b6 00             	movzbl (%rax),%eax
  402910:	0f b6 f0             	movzbl %al,%esi
  402913:	48 8d 45 e0          	lea    -0x20(%rbp),%rax
  402917:	48 83 c0 01          	add    $0x1,%rax
  40291b:	0f b6 00             	movzbl (%rax),%eax
  40291e:	0f b6 c8             	movzbl %al,%ecx
  402921:	48 8d 45 e0          	lea    -0x20(%rbp),%rax
  402925:	48 83 c0 02          	add    $0x2,%rax
  402929:	0f b6 00             	movzbl (%rax),%eax
  40292c:	0f b6 d0             	movzbl %al,%edx
  40292f:	48 8d 45 e0          	lea    -0x20(%rbp),%rax
  402933:	48 83 c0 03          	add    $0x3,%rax
  402937:	0f b6 00             	movzbl (%rax),%eax
  40293a:	0f b6 c0             	movzbl %al,%eax
  40293d:	41 89 f1             	mov    %esi,%r9d
  402940:	41 89 c8             	mov    %ecx,%r8d
  402943:	89 d1                	mov    %edx,%ecx
  402945:	89 c2                	mov    %eax,%edx
  402947:	be 7c 45 40 00       	mov    $0x40457c,%esi
  40294c:	bf 65 45 40 00       	mov    $0x404565,%edi
  402951:	b8 00 00 00 00       	mov    $0x0,%eax
  402956:	e8 85 e7 ff ff       	callq  4010e0 <printf@plt>
  40295b:	48 8b 45 d0          	mov    -0x30(%rbp),%rax
  40295f:	48 89 c7             	mov    %rax,%rdi
  402962:	e8 05 fd ff ff       	callq  40266c <packet_to_ip_hdr>
  402967:	48 89 45 f0          	mov    %rax,-0x10(%rbp)
  40296b:	48 8b 45 f0          	mov    -0x10(%rbp),%rax
  40296f:	0f b6 40 08          	movzbl 0x8(%rax),%eax
  402973:	0f b6 c0             	movzbl %al,%eax
  402976:	89 c7                	mov    %eax,%edi
  402978:	e8 13 e9 ff ff       	callq  401290 <ntohl@plt>
  40297d:	83 e8 01             	sub    $0x1,%eax
  402980:	89 c7                	mov    %eax,%edi
  402982:	e8 79 e7 ff ff       	callq  401100 <htonl@plt>
  402987:	89 c2                	mov    %eax,%edx
  402989:	48 8b 45 f0          	mov    -0x10(%rbp),%rax
  40298d:	88 50 08             	mov    %dl,0x8(%rax)
  402990:	48 8b 45 f0          	mov    -0x10(%rbp),%rax
  402994:	0f b6 40 08          	movzbl 0x8(%rax),%eax
  402998:	84 c0                	test   %al,%al
  40299a:	75 1e                	jne    4029ba <ip_forward_packet+0x1e6>
  40299c:	8b 75 d8             	mov    -0x28(%rbp),%esi
  40299f:	48 8b 45 d0          	mov    -0x30(%rbp),%rax
  4029a3:	b9 00 00 00 00       	mov    $0x0,%ecx
  4029a8:	ba 0b 00 00 00       	mov    $0xb,%edx
  4029ad:	48 89 c7             	mov    %rax,%rdi
  4029b0:	e8 61 f8 ff ff       	callq  402216 <icmp_send_packet>
  4029b5:	e9 99 00 00 00       	jmpq   402a53 <ip_forward_packet+0x27f>
  4029ba:	48 8b 45 f0          	mov    -0x10(%rbp),%rax
  4029be:	48 89 c7             	mov    %rax,%rdi
  4029c1:	e8 47 fc ff ff       	callq  40260d <ip_checksum>
  4029c6:	89 c2                	mov    %eax,%edx
  4029c8:	48 8b 45 f0          	mov    -0x10(%rbp),%rax
  4029cc:	66 89 50 0a          	mov    %dx,0xa(%rax)
  4029d0:	48 8b 45 e8          	mov    -0x18(%rbp),%rax
  4029d4:	8b 40 18             	mov    0x18(%rax),%eax
  4029d7:	89 45 e4             	mov    %eax,-0x1c(%rbp)
  4029da:	8b 45 e4             	mov    -0x1c(%rbp),%eax
  4029dd:	85 c0                	test   %eax,%eax
  4029df:	75 06                	jne    4029e7 <ip_forward_packet+0x213>
  4029e1:	8b 45 dc             	mov    -0x24(%rbp),%eax
  4029e4:	89 45 e4             	mov    %eax,-0x1c(%rbp)
  4029e7:	48 8d 45 e4          	lea    -0x1c(%rbp),%rax
  4029eb:	0f b6 00             	movzbl (%rax),%eax
  4029ee:	0f b6 f0             	movzbl %al,%esi
  4029f1:	48 8d 45 e4          	lea    -0x1c(%rbp),%rax
  4029f5:	48 83 c0 01          	add    $0x1,%rax
  4029f9:	0f b6 00             	movzbl (%rax),%eax
  4029fc:	0f b6 c8             	movzbl %al,%ecx
  4029ff:	48 8d 45 e4          	lea    -0x1c(%rbp),%rax
  402a03:	48 83 c0 02          	add    $0x2,%rax
  402a07:	0f b6 00             	movzbl (%rax),%eax
  402a0a:	0f b6 d0             	movzbl %al,%edx
  402a0d:	48 8d 45 e4          	lea    -0x1c(%rbp),%rax
  402a11:	48 83 c0 03          	add    $0x3,%rax
  402a15:	0f b6 00             	movzbl (%rax),%eax
  402a18:	0f b6 c0             	movzbl %al,%eax
  402a1b:	41 89 f1             	mov    %esi,%r9d
  402a1e:	41 89 c8             	mov    %ecx,%r8d
  402a21:	89 d1                	mov    %edx,%ecx
  402a23:	89 c2                	mov    %eax,%edx
  402a25:	be 95 45 40 00       	mov    $0x404595,%esi
  402a2a:	bf 65 45 40 00       	mov    $0x404565,%edi
  402a2f:	b8 00 00 00 00       	mov    $0x0,%eax
  402a34:	e8 a7 e6 ff ff       	callq  4010e0 <printf@plt>
  402a39:	8b 75 e4             	mov    -0x1c(%rbp),%esi
  402a3c:	48 8b 45 e8          	mov    -0x18(%rbp),%rax
  402a40:	48 8b 40 30          	mov    0x30(%rax),%rax
  402a44:	8b 4d d8             	mov    -0x28(%rbp),%ecx
  402a47:	48 8b 55 d0          	mov    -0x30(%rbp),%rdx
  402a4b:	48 89 c7             	mov    %rax,%rdi
  402a4e:	e8 ef ec ff ff       	callq  401742 <iface_send_packet_by_arp>
  402a53:	48 8b 45 f8          	mov    -0x8(%rbp),%rax
  402a57:	64 48 33 04 25 28 00 	xor    %fs:0x28,%rax
  402a5e:	00 00 
  402a60:	74 05                	je     402a67 <ip_forward_packet+0x293>
  402a62:	e8 39 e6 ff ff       	callq  4010a0 <__stack_chk_fail@plt>
  402a67:	c9                   	leaveq 
  402a68:	c3                   	retq   

0000000000402a69 <handle_ip_packet>:
  402a69:	55                   	push   %rbp
  402a6a:	48 89 e5             	mov    %rsp,%rbp
  402a6d:	48 83 ec 40          	sub    $0x40,%rsp
  402a71:	48 89 7d d8          	mov    %rdi,-0x28(%rbp)
  402a75:	48 89 75 d0          	mov    %rsi,-0x30(%rbp)
  402a79:	89 55 cc             	mov    %edx,-0x34(%rbp)
  402a7c:	48 8b 45 d0          	mov    -0x30(%rbp),%rax
  402a80:	48 83 c0 0e          	add    $0xe,%rax
  402a84:	48 89 45 f0          	mov    %rax,-0x10(%rbp)
  402a88:	48 8b 45 f0          	mov    -0x10(%rbp),%rax
  402a8c:	0f b6 00             	movzbl (%rax),%eax
  402a8f:	83 e0 0f             	and    $0xf,%eax
  402a92:	0f b6 c0             	movzbl %al,%eax
  402a95:	c1 e0 02             	shl    $0x2,%eax
  402a98:	48 98                	cltq   
  402a9a:	48 8d 50 0e          	lea    0xe(%rax),%rdx
  402a9e:	48 8b 45 d0          	mov    -0x30(%rbp),%rax
  402aa2:	48 01 d0             	add    %rdx,%rax
  402aa5:	48 89 45 f8          	mov    %rax,-0x8(%rbp)
  402aa9:	48 8b 45 f0          	mov    -0x10(%rbp),%rax
  402aad:	8b 40 10             	mov    0x10(%rax),%eax
  402ab0:	89 c7                	mov    %eax,%edi
  402ab2:	e8 d9 e7 ff ff       	callq  401290 <ntohl@plt>
  402ab7:	89 45 ec             	mov    %eax,-0x14(%rbp)
  402aba:	48 8b 45 d8          	mov    -0x28(%rbp),%rax
  402abe:	8b 40 20             	mov    0x20(%rax),%eax
  402ac1:	3b 45 ec             	cmp    -0x14(%rbp),%eax
  402ac4:	75 26                	jne    402aec <handle_ip_packet+0x83>
  402ac6:	48 8b 45 f8          	mov    -0x8(%rbp),%rax
  402aca:	0f b6 00             	movzbl (%rax),%eax
  402acd:	3c 08                	cmp    $0x8,%al
  402acf:	75 1b                	jne    402aec <handle_ip_packet+0x83>
  402ad1:	8b 75 cc             	mov    -0x34(%rbp),%esi
  402ad4:	48 8b 45 d0          	mov    -0x30(%rbp),%rax
  402ad8:	b9 00 00 00 00       	mov    $0x0,%ecx
  402add:	ba 00 00 00 00       	mov    $0x0,%edx
  402ae2:	48 89 c7             	mov    %rax,%rdi
  402ae5:	e8 2c f7 ff ff       	callq  402216 <icmp_send_packet>
  402aea:	eb 14                	jmp    402b00 <handle_ip_packet+0x97>
  402aec:	8b 55 cc             	mov    -0x34(%rbp),%edx
  402aef:	48 8b 4d d0          	mov    -0x30(%rbp),%rcx
  402af3:	8b 45 ec             	mov    -0x14(%rbp),%eax
  402af6:	48 89 ce             	mov    %rcx,%rsi
  402af9:	89 c7                	mov    %eax,%edi
  402afb:	e8 d4 fc ff ff       	callq  4027d4 <ip_forward_packet>
  402b00:	90                   	nop
  402b01:	c9                   	leaveq 
  402b02:	c3                   	retq   

0000000000402b03 <ip_send_packet>:
  402b03:	55                   	push   %rbp
  402b04:	48 89 e5             	mov    %rsp,%rbp
  402b07:	48 83 ec 40          	sub    $0x40,%rsp
  402b0b:	48 89 7d c8          	mov    %rdi,-0x38(%rbp)
  402b0f:	89 75 c4             	mov    %esi,-0x3c(%rbp)
  402b12:	64 48 8b 04 25 28 00 	mov    %fs:0x28,%rax
  402b19:	00 00 
  402b1b:	48 89 45 f8          	mov    %rax,-0x8(%rbp)
  402b1f:	31 c0                	xor    %eax,%eax
  402b21:	48 8b 45 c8          	mov    -0x38(%rbp),%rax
  402b25:	48 89 c7             	mov    %rax,%rdi
  402b28:	e8 3f fb ff ff       	callq  40266c <packet_to_ip_hdr>
  402b2d:	48 89 45 e0          	mov    %rax,-0x20(%rbp)
  402b31:	48 8b 45 e0          	mov    -0x20(%rbp),%rax
  402b35:	8b 40 10             	mov    0x10(%rax),%eax
  402b38:	89 c7                	mov    %eax,%edi
  402b3a:	e8 51 e7 ff ff       	callq  401290 <ntohl@plt>
  402b3f:	89 45 d8             	mov    %eax,-0x28(%rbp)
  402b42:	8b 45 d8             	mov    -0x28(%rbp),%eax
  402b45:	89 c7                	mov    %eax,%edi
  402b47:	e8 00 fc ff ff       	callq  40274c <longest_prefix_match>
  402b4c:	48 89 45 e8          	mov    %rax,-0x18(%rbp)
  402b50:	48 83 7d e8 00       	cmpq   $0x0,-0x18(%rbp)
  402b55:	0f 85 83 00 00 00    	jne    402bde <ip_send_packet+0xdb>
  402b5b:	8b 05 63 3b 20 00    	mov    0x203b63(%rip),%eax        # 6066c4 <this_log_level>
  402b61:	83 f8 03             	cmp    $0x3,%eax
  402b64:	77 66                	ja     402bcc <ip_send_packet+0xc9>
  402b66:	48 8d 45 d8          	lea    -0x28(%rbp),%rax
  402b6a:	0f b6 00             	movzbl (%rax),%eax
  402b6d:	0f b6 f0             	movzbl %al,%esi
  402b70:	48 8d 45 d8          	lea    -0x28(%rbp),%rax
  402b74:	48 83 c0 01          	add    $0x1,%rax
  402b78:	0f b6 00             	movzbl (%rax),%eax
  402b7b:	44 0f b6 c0          	movzbl %al,%r8d
  402b7f:	48 8d 45 d8          	lea    -0x28(%rbp),%rax
  402b83:	48 83 c0 02          	add    $0x2,%rax
  402b87:	0f b6 00             	movzbl (%rax),%eax
  402b8a:	0f b6 f8             	movzbl %al,%edi
  402b8d:	48 8d 45 d8          	lea    -0x28(%rbp),%rax
  402b91:	48 83 c0 03          	add    $0x3,%rax
  402b95:	0f b6 00             	movzbl (%rax),%eax
  402b98:	0f b6 c8             	movzbl %al,%ecx
  402b9b:	48 8b 15 76 36 20 00 	mov    0x203676(%rip),%rdx        # 606218 <log_level_str+0x18>
  402ba2:	48 8b 05 b7 36 20 00 	mov    0x2036b7(%rip),%rax        # 606260 <stderr@@GLIBC_2.2.5>
  402ba9:	48 83 ec 08          	sub    $0x8,%rsp
  402bad:	56                   	push   %rsi
  402bae:	45 89 c1             	mov    %r8d,%r9d
  402bb1:	41 89 f8             	mov    %edi,%r8d
  402bb4:	be b0 45 40 00       	mov    $0x4045b0,%esi
  402bb9:	48 89 c7             	mov    %rax,%rdi
  402bbc:	b8 00 00 00 00       	mov    $0x0,%eax
  402bc1:	e8 ca e5 ff ff       	callq  401190 <fprintf@plt>
  402bc6:	48 83 c4 10          	add    $0x10,%rsp
  402bca:	eb 01                	jmp    402bcd <ip_send_packet+0xca>
  402bcc:	90                   	nop
  402bcd:	48 8b 45 c8          	mov    -0x38(%rbp),%rax
  402bd1:	48 89 c7             	mov    %rax,%rdi
  402bd4:	e8 37 e4 ff ff       	callq  401010 <free@plt>
  402bd9:	e9 c3 00 00 00       	jmpq   402ca1 <ip_send_packet+0x19e>
  402bde:	48 8b 45 e8          	mov    -0x18(%rbp),%rax
  402be2:	8b 40 18             	mov    0x18(%rax),%eax
  402be5:	89 45 dc             	mov    %eax,-0x24(%rbp)
  402be8:	8b 45 dc             	mov    -0x24(%rbp),%eax
  402beb:	85 c0                	test   %eax,%eax
  402bed:	75 06                	jne    402bf5 <ip_send_packet+0xf2>
  402bef:	8b 45 d8             	mov    -0x28(%rbp),%eax
  402bf2:	89 45 dc             	mov    %eax,-0x24(%rbp)
  402bf5:	48 8d 45 dc          	lea    -0x24(%rbp),%rax
  402bf9:	0f b6 00             	movzbl (%rax),%eax
  402bfc:	0f b6 f0             	movzbl %al,%esi
  402bff:	48 8d 45 dc          	lea    -0x24(%rbp),%rax
  402c03:	48 83 c0 01          	add    $0x1,%rax
  402c07:	0f b6 00             	movzbl (%rax),%eax
  402c0a:	0f b6 c8             	movzbl %al,%ecx
  402c0d:	48 8d 45 dc          	lea    -0x24(%rbp),%rax
  402c11:	48 83 c0 02          	add    $0x2,%rax
  402c15:	0f b6 00             	movzbl (%rax),%eax
  402c18:	0f b6 d0             	movzbl %al,%edx
  402c1b:	48 8d 45 dc          	lea    -0x24(%rbp),%rax
  402c1f:	48 83 c0 03          	add    $0x3,%rax
  402c23:	0f b6 00             	movzbl (%rax),%eax
  402c26:	0f b6 c0             	movzbl %al,%eax
  402c29:	41 89 f1             	mov    %esi,%r9d
  402c2c:	41 89 c8             	mov    %ecx,%r8d
  402c2f:	89 d1                	mov    %edx,%ecx
  402c31:	89 c2                	mov    %eax,%edx
  402c33:	be 06 46 40 00       	mov    $0x404606,%esi
  402c38:	bf 65 45 40 00       	mov    $0x404565,%edi
  402c3d:	b8 00 00 00 00       	mov    $0x0,%eax
  402c42:	e8 99 e4 ff ff       	callq  4010e0 <printf@plt>
  402c47:	48 8b 45 c8          	mov    -0x38(%rbp),%rax
  402c4b:	48 89 45 f0          	mov    %rax,-0x10(%rbp)
  402c4f:	bf 00 08 00 00       	mov    $0x800,%edi
  402c54:	e8 a7 e5 ff ff       	callq  401200 <ntohs@plt>
  402c59:	89 c2                	mov    %eax,%edx
  402c5b:	48 8b 45 f0          	mov    -0x10(%rbp),%rax
  402c5f:	66 89 50 0c          	mov    %dx,0xc(%rax)
  402c63:	48 8b 45 e8          	mov    -0x18(%rbp),%rax
  402c67:	48 8b 40 30          	mov    0x30(%rax),%rax
  402c6b:	48 8d 48 18          	lea    0x18(%rax),%rcx
  402c6f:	48 8b 45 f0          	mov    -0x10(%rbp),%rax
  402c73:	48 83 c0 06          	add    $0x6,%rax
  402c77:	ba 06 00 00 00       	mov    $0x6,%edx
  402c7c:	48 89 ce             	mov    %rcx,%rsi
  402c7f:	48 89 c7             	mov    %rax,%rdi
  402c82:	e8 19 e5 ff ff       	callq  4011a0 <memcpy@plt>
  402c87:	8b 75 dc             	mov    -0x24(%rbp),%esi
  402c8a:	48 8b 45 e8          	mov    -0x18(%rbp),%rax
  402c8e:	48 8b 40 30          	mov    0x30(%rax),%rax
  402c92:	8b 4d c4             	mov    -0x3c(%rbp),%ecx
  402c95:	48 8b 55 c8          	mov    -0x38(%rbp),%rdx
  402c99:	48 89 c7             	mov    %rax,%rdi
  402c9c:	e8 a1 ea ff ff       	callq  401742 <iface_send_packet_by_arp>
  402ca1:	48 8b 45 f8          	mov    -0x8(%rbp),%rax
  402ca5:	64 48 33 04 25 28 00 	xor    %fs:0x28,%rax
  402cac:	00 00 
  402cae:	74 05                	je     402cb5 <ip_send_packet+0x1b2>
  402cb0:	e8 eb e3 ff ff       	callq  4010a0 <__stack_chk_fail@plt>
  402cb5:	c9                   	leaveq 
  402cb6:	c3                   	retq   

0000000000402cb7 <init_list_head>:
  402cb7:	55                   	push   %rbp
  402cb8:	48 89 e5             	mov    %rsp,%rbp
  402cbb:	48 89 7d f8          	mov    %rdi,-0x8(%rbp)
  402cbf:	48 8b 45 f8          	mov    -0x8(%rbp),%rax
  402cc3:	48 8b 55 f8          	mov    -0x8(%rbp),%rdx
  402cc7:	48 89 50 08          	mov    %rdx,0x8(%rax)
  402ccb:	48 8b 45 f8          	mov    -0x8(%rbp),%rax
  402ccf:	48 8b 50 08          	mov    0x8(%rax),%rdx
  402cd3:	48 8b 45 f8          	mov    -0x8(%rbp),%rax
  402cd7:	48 89 10             	mov    %rdx,(%rax)
  402cda:	90                   	nop
  402cdb:	5d                   	pop    %rbp
  402cdc:	c3                   	retq   

0000000000402cdd <list_insert>:
  402cdd:	55                   	push   %rbp
  402cde:	48 89 e5             	mov    %rsp,%rbp
  402ce1:	48 89 7d f8          	mov    %rdi,-0x8(%rbp)
  402ce5:	48 89 75 f0          	mov    %rsi,-0x10(%rbp)
  402ce9:	48 89 55 e8          	mov    %rdx,-0x18(%rbp)
  402ced:	48 8b 45 e8          	mov    -0x18(%rbp),%rax
  402cf1:	48 8b 55 f8          	mov    -0x8(%rbp),%rdx
  402cf5:	48 89 50 08          	mov    %rdx,0x8(%rax)
  402cf9:	48 8b 45 f0          	mov    -0x10(%rbp),%rax
  402cfd:	48 8b 55 f8          	mov    -0x8(%rbp),%rdx
  402d01:	48 89 10             	mov    %rdx,(%rax)
  402d04:	48 8b 45 f8          	mov    -0x8(%rbp),%rax
  402d08:	48 8b 55 e8          	mov    -0x18(%rbp),%rdx
  402d0c:	48 89 10             	mov    %rdx,(%rax)
  402d0f:	48 8b 45 f8          	mov    -0x8(%rbp),%rax
  402d13:	48 8b 55 f0          	mov    -0x10(%rbp),%rdx
  402d17:	48 89 50 08          	mov    %rdx,0x8(%rax)
  402d1b:	90                   	nop
  402d1c:	5d                   	pop    %rbp
  402d1d:	c3                   	retq   

0000000000402d1e <list_add_tail>:
  402d1e:	55                   	push   %rbp
  402d1f:	48 89 e5             	mov    %rsp,%rbp
  402d22:	48 83 ec 10          	sub    $0x10,%rsp
  402d26:	48 89 7d f8          	mov    %rdi,-0x8(%rbp)
  402d2a:	48 89 75 f0          	mov    %rsi,-0x10(%rbp)
  402d2e:	48 8b 45 f0          	mov    -0x10(%rbp),%rax
  402d32:	48 8b 48 08          	mov    0x8(%rax),%rcx
  402d36:	48 8b 55 f0          	mov    -0x10(%rbp),%rdx
  402d3a:	48 8b 45 f8          	mov    -0x8(%rbp),%rax
  402d3e:	48 89 ce             	mov    %rcx,%rsi
  402d41:	48 89 c7             	mov    %rax,%rdi
  402d44:	e8 94 ff ff ff       	callq  402cdd <list_insert>
  402d49:	90                   	nop
  402d4a:	c9                   	leaveq 
  402d4b:	c3                   	retq   

0000000000402d4c <fd_to_iface>:
  402d4c:	55                   	push   %rbp
  402d4d:	48 89 e5             	mov    %rsp,%rbp
  402d50:	48 83 ec 20          	sub    $0x20,%rsp
  402d54:	89 7d ec             	mov    %edi,-0x14(%rbp)
  402d57:	48 c7 45 f8 00 00 00 	movq   $0x0,-0x8(%rbp)
  402d5e:	00 
  402d5f:	48 8b 05 6a 39 20 00 	mov    0x20396a(%rip),%rax        # 6066d0 <instance>
  402d66:	48 8b 00             	mov    (%rax),%rax
  402d69:	48 89 45 f8          	mov    %rax,-0x8(%rbp)
  402d6d:	eb 1d                	jmp    402d8c <fd_to_iface+0x40>
  402d6f:	48 8b 45 f8          	mov    -0x8(%rbp),%rax
  402d73:	8b 40 10             	mov    0x10(%rax),%eax
  402d76:	3b 45 ec             	cmp    -0x14(%rbp),%eax
  402d79:	75 06                	jne    402d81 <fd_to_iface+0x35>
  402d7b:	48 8b 45 f8          	mov    -0x8(%rbp),%rax
  402d7f:	eb 39                	jmp    402dba <fd_to_iface+0x6e>
  402d81:	48 8b 45 f8          	mov    -0x8(%rbp),%rax
  402d85:	48 8b 00             	mov    (%rax),%rax
  402d88:	48 89 45 f8          	mov    %rax,-0x8(%rbp)
  402d8c:	48 8b 05 3d 39 20 00 	mov    0x20393d(%rip),%rax        # 6066d0 <instance>
  402d93:	48 39 45 f8          	cmp    %rax,-0x8(%rbp)
  402d97:	75 d6                	jne    402d6f <fd_to_iface+0x23>
  402d99:	48 8b 05 c0 34 20 00 	mov    0x2034c0(%rip),%rax        # 606260 <stderr@@GLIBC_2.2.5>
  402da0:	8b 55 ec             	mov    -0x14(%rbp),%edx
  402da3:	be 50 46 40 00       	mov    $0x404650,%esi
  402da8:	48 89 c7             	mov    %rax,%rdi
  402dab:	b8 00 00 00 00       	mov    $0x0,%eax
  402db0:	e8 db e3 ff ff       	callq  401190 <fprintf@plt>
  402db5:	b8 00 00 00 00       	mov    $0x0,%eax
  402dba:	c9                   	leaveq 
  402dbb:	c3                   	retq   

0000000000402dbc <handle_packet>:
  402dbc:	55                   	push   %rbp
  402dbd:	48 89 e5             	mov    %rsp,%rbp
  402dc0:	48 83 ec 30          	sub    $0x30,%rsp
  402dc4:	48 89 7d e8          	mov    %rdi,-0x18(%rbp)
  402dc8:	48 89 75 e0          	mov    %rsi,-0x20(%rbp)
  402dcc:	89 55 dc             	mov    %edx,-0x24(%rbp)
  402dcf:	48 8b 45 e0          	mov    -0x20(%rbp),%rax
  402dd3:	48 89 45 f8          	mov    %rax,-0x8(%rbp)
  402dd7:	8b 05 eb 38 20 00    	mov    0x2038eb(%rip),%eax        # 6066c8 <this_log_level>
  402ddd:	85 c0                	test   %eax,%eax
  402ddf:	75 48                	jne    402e29 <handle_packet+0x6d>
  402de1:	48 8b 45 f8          	mov    -0x8(%rbp),%rax
  402de5:	0f b7 40 0c          	movzwl 0xc(%rax),%eax
  402de9:	0f b7 c0             	movzwl %ax,%eax
  402dec:	89 c7                	mov    %eax,%edi
  402dee:	e8 0d e4 ff ff       	callq  401200 <ntohs@plt>
  402df3:	0f b7 f8             	movzwl %ax,%edi
  402df6:	48 8b 45 e8          	mov    -0x18(%rbp),%rax
  402dfa:	48 8d 48 28          	lea    0x28(%rax),%rcx
  402dfe:	48 8b 15 1b 34 20 00 	mov    0x20341b(%rip),%rdx        # 606220 <log_level_str>
  402e05:	48 8b 05 54 34 20 00 	mov    0x203454(%rip),%rax        # 606260 <stderr@@GLIBC_2.2.5>
  402e0c:	8b 75 dc             	mov    -0x24(%rbp),%esi
  402e0f:	41 89 f9             	mov    %edi,%r9d
  402e12:	41 89 f0             	mov    %esi,%r8d
  402e15:	be 90 46 40 00       	mov    $0x404690,%esi
  402e1a:	48 89 c7             	mov    %rax,%rdi
  402e1d:	b8 00 00 00 00       	mov    $0x0,%eax
  402e22:	e8 69 e3 ff ff       	callq  401190 <fprintf@plt>
  402e27:	eb 01                	jmp    402e2a <handle_packet+0x6e>
  402e29:	90                   	nop
  402e2a:	48 8b 45 f8          	mov    -0x8(%rbp),%rax
  402e2e:	0f b7 40 0c          	movzwl 0xc(%rax),%eax
  402e32:	0f b7 c0             	movzwl %ax,%eax
  402e35:	89 c7                	mov    %eax,%edi
  402e37:	e8 c4 e3 ff ff       	callq  401200 <ntohs@plt>
  402e3c:	0f b7 c0             	movzwl %ax,%eax
  402e3f:	3d 00 08 00 00       	cmp    $0x800,%eax
  402e44:	74 09                	je     402e4f <handle_packet+0x93>
  402e46:	3d 06 08 00 00       	cmp    $0x806,%eax
  402e4b:	74 24                	je     402e71 <handle_packet+0xb5>
  402e4d:	eb 44                	jmp    402e93 <handle_packet+0xd7>
  402e4f:	bf d2 46 40 00       	mov    $0x4046d2,%edi
  402e54:	e8 07 e2 ff ff       	callq  401060 <puts@plt>
  402e59:	8b 55 dc             	mov    -0x24(%rbp),%edx
  402e5c:	48 8b 4d e0          	mov    -0x20(%rbp),%rcx
  402e60:	48 8b 45 e8          	mov    -0x18(%rbp),%rax
  402e64:	48 89 ce             	mov    %rcx,%rsi
  402e67:	48 89 c7             	mov    %rax,%rdi
  402e6a:	e8 fa fb ff ff       	callq  402a69 <handle_ip_packet>
  402e6f:	eb 66                	jmp    402ed7 <handle_packet+0x11b>
  402e71:	bf e1 46 40 00       	mov    $0x4046e1,%edi
  402e76:	e8 e5 e1 ff ff       	callq  401060 <puts@plt>
  402e7b:	8b 55 dc             	mov    -0x24(%rbp),%edx
  402e7e:	48 8b 4d e0          	mov    -0x20(%rbp),%rcx
  402e82:	48 8b 45 e8          	mov    -0x18(%rbp),%rax
  402e86:	48 89 ce             	mov    %rcx,%rsi
  402e89:	48 89 c7             	mov    %rax,%rdi
  402e8c:	e8 20 e8 ff ff       	callq  4016b1 <handle_arp_packet>
  402e91:	eb 44                	jmp    402ed7 <handle_packet+0x11b>
  402e93:	8b 05 2f 38 20 00    	mov    0x20382f(%rip),%eax        # 6066c8 <this_log_level>
  402e99:	83 f8 03             	cmp    $0x3,%eax
  402e9c:	77 37                	ja     402ed5 <handle_packet+0x119>
  402e9e:	48 8b 45 f8          	mov    -0x8(%rbp),%rax
  402ea2:	0f b7 40 0c          	movzwl 0xc(%rax),%eax
  402ea6:	0f b7 c0             	movzwl %ax,%eax
  402ea9:	89 c7                	mov    %eax,%edi
  402eab:	e8 50 e3 ff ff       	callq  401200 <ntohs@plt>
  402eb0:	0f b7 c8             	movzwl %ax,%ecx
  402eb3:	48 8b 15 7e 33 20 00 	mov    0x20337e(%rip),%rdx        # 606238 <log_level_str+0x18>
  402eba:	48 8b 05 9f 33 20 00 	mov    0x20339f(%rip),%rax        # 606260 <stderr@@GLIBC_2.2.5>
  402ec1:	be f8 46 40 00       	mov    $0x4046f8,%esi
  402ec6:	48 89 c7             	mov    %rax,%rdi
  402ec9:	b8 00 00 00 00       	mov    $0x0,%eax
  402ece:	e8 bd e2 ff ff       	callq  401190 <fprintf@plt>
  402ed3:	eb 01                	jmp    402ed6 <handle_packet+0x11a>
  402ed5:	90                   	nop
  402ed6:	90                   	nop
  402ed7:	90                   	nop
  402ed8:	c9                   	leaveq 
  402ed9:	c3                   	retq   

0000000000402eda <open_device>:
  402eda:	55                   	push   %rbp
  402edb:	48 89 e5             	mov    %rsp,%rbp
  402ede:	48 83 ec 70          	sub    $0x70,%rsp
  402ee2:	48 89 7d 98          	mov    %rdi,-0x68(%rbp)
  402ee6:	64 48 8b 04 25 28 00 	mov    %fs:0x28,%rax
  402eed:	00 00 
  402eef:	48 89 45 f8          	mov    %rax,-0x8(%rbp)
  402ef3:	31 c0                	xor    %eax,%eax
  402ef5:	bf 03 00 00 00       	mov    $0x3,%edi
  402efa:	e8 c1 e1 ff ff       	callq  4010c0 <htons@plt>
  402eff:	0f b7 c0             	movzwl %ax,%eax
  402f02:	89 c2                	mov    %eax,%edx
  402f04:	be 03 00 00 00       	mov    $0x3,%esi
  402f09:	bf 11 00 00 00       	mov    $0x11,%edi
  402f0e:	e8 ed e3 ff ff       	callq  401300 <socket@plt>
  402f13:	89 45 ac             	mov    %eax,-0x54(%rbp)
  402f16:	83 7d ac 00          	cmpl   $0x0,-0x54(%rbp)
  402f1a:	79 14                	jns    402f30 <open_device+0x56>
  402f1c:	bf 25 47 40 00       	mov    $0x404725,%edi
  402f21:	e8 1a e3 ff ff       	callq  401240 <perror@plt>
  402f26:	b8 ff ff ff ff       	mov    $0xffffffff,%eax
  402f2b:	e9 c9 00 00 00       	jmpq   402ff9 <open_device+0x11f>
  402f30:	48 8d 45 d0          	lea    -0x30(%rbp),%rax
  402f34:	be 28 00 00 00       	mov    $0x28,%esi
  402f39:	48 89 c7             	mov    %rax,%rdi
  402f3c:	e8 0f e3 ff ff       	callq  401250 <bzero@plt>
  402f41:	48 8b 55 98          	mov    -0x68(%rbp),%rdx
  402f45:	48 8d 45 d0          	lea    -0x30(%rbp),%rax
  402f49:	48 89 d6             	mov    %rdx,%rsi
  402f4c:	48 89 c7             	mov    %rax,%rdi
  402f4f:	e8 fc e0 ff ff       	callq  401050 <strcpy@plt>
  402f54:	48 8d 55 d0          	lea    -0x30(%rbp),%rdx
  402f58:	8b 45 ac             	mov    -0x54(%rbp),%eax
  402f5b:	be 33 89 00 00       	mov    $0x8933,%esi
  402f60:	89 c7                	mov    %eax,%edi
  402f62:	b8 00 00 00 00       	mov    $0x0,%eax
  402f67:	e8 c4 e1 ff ff       	callq  401130 <ioctl@plt>
  402f6c:	85 c0                	test   %eax,%eax
  402f6e:	79 11                	jns    402f81 <open_device+0xa7>
  402f70:	bf 3f 47 40 00       	mov    $0x40473f,%edi
  402f75:	e8 c6 e2 ff ff       	callq  401240 <perror@plt>
  402f7a:	b8 ff ff ff ff       	mov    $0xffffffff,%eax
  402f7f:	eb 78                	jmp    402ff9 <open_device+0x11f>
  402f81:	48 8d 45 b0          	lea    -0x50(%rbp),%rax
  402f85:	be 14 00 00 00       	mov    $0x14,%esi
  402f8a:	48 89 c7             	mov    %rax,%rdi
  402f8d:	e8 be e2 ff ff       	callq  401250 <bzero@plt>
  402f92:	66 c7 45 b0 11 00    	movw   $0x11,-0x50(%rbp)
  402f98:	8b 45 e0             	mov    -0x20(%rbp),%eax
  402f9b:	89 45 b4             	mov    %eax,-0x4c(%rbp)
  402f9e:	48 8d 4d b0          	lea    -0x50(%rbp),%rcx
  402fa2:	8b 45 ac             	mov    -0x54(%rbp),%eax
  402fa5:	ba 14 00 00 00       	mov    $0x14,%edx
  402faa:	48 89 ce             	mov    %rcx,%rsi
  402fad:	89 c7                	mov    %eax,%edi
  402faf:	e8 7c e2 ff ff       	callq  401230 <bind@plt>
  402fb4:	85 c0                	test   %eax,%eax
  402fb6:	79 11                	jns    402fc9 <open_device+0xef>
  402fb8:	bf 5c 47 40 00       	mov    $0x40475c,%edi
  402fbd:	e8 7e e2 ff ff       	callq  401240 <perror@plt>
  402fc2:	b8 ff ff ff ff       	mov    $0xffffffff,%eax
  402fc7:	eb 30                	jmp    402ff9 <open_device+0x11f>
  402fc9:	48 8d 55 d0          	lea    -0x30(%rbp),%rdx
  402fcd:	8b 45 ac             	mov    -0x54(%rbp),%eax
  402fd0:	be 27 89 00 00       	mov    $0x8927,%esi
  402fd5:	89 c7                	mov    %eax,%edi
  402fd7:	b8 00 00 00 00       	mov    $0x0,%eax
  402fdc:	e8 4f e1 ff ff       	callq  401130 <ioctl@plt>
  402fe1:	85 c0                	test   %eax,%eax
  402fe3:	79 11                	jns    402ff6 <open_device+0x11c>
  402fe5:	bf 78 47 40 00       	mov    $0x404778,%edi
  402fea:	e8 51 e2 ff ff       	callq  401240 <perror@plt>
  402fef:	b8 ff ff ff ff       	mov    $0xffffffff,%eax
  402ff4:	eb 03                	jmp    402ff9 <open_device+0x11f>
  402ff6:	8b 45 ac             	mov    -0x54(%rbp),%eax
  402ff9:	48 8b 4d f8          	mov    -0x8(%rbp),%rcx
  402ffd:	64 48 33 0c 25 28 00 	xor    %fs:0x28,%rcx
  403004:	00 00 
  403006:	74 05                	je     40300d <open_device+0x133>
  403008:	e8 93 e0 ff ff       	callq  4010a0 <__stack_chk_fail@plt>
  40300d:	c9                   	leaveq 
  40300e:	c3                   	retq   

000000000040300f <read_iface_info>:
  40300f:	55                   	push   %rbp
  403010:	48 89 e5             	mov    %rsp,%rbp
  403013:	48 83 ec 60          	sub    $0x60,%rsp
  403017:	48 89 7d a8          	mov    %rdi,-0x58(%rbp)
  40301b:	64 48 8b 04 25 28 00 	mov    %fs:0x28,%rax
  403022:	00 00 
  403024:	48 89 45 f8          	mov    %rax,-0x8(%rbp)
  403028:	31 c0                	xor    %eax,%eax
  40302a:	48 8b 45 a8          	mov    -0x58(%rbp),%rax
  40302e:	48 83 c0 28          	add    $0x28,%rax
  403032:	48 89 c7             	mov    %rax,%rdi
  403035:	e8 a0 fe ff ff       	callq  402eda <open_device>
  40303a:	89 45 c8             	mov    %eax,-0x38(%rbp)
  40303d:	48 8b 45 a8          	mov    -0x58(%rbp),%rax
  403041:	8b 55 c8             	mov    -0x38(%rbp),%edx
  403044:	89 50 10             	mov    %edx,0x10(%rax)
  403047:	ba 00 00 00 00       	mov    $0x0,%edx
  40304c:	be 02 00 00 00       	mov    $0x2,%esi
  403051:	bf 02 00 00 00       	mov    $0x2,%edi
  403056:	e8 a5 e2 ff ff       	callq  401300 <socket@plt>
  40305b:	89 45 cc             	mov    %eax,-0x34(%rbp)
  40305e:	48 8b 45 a8          	mov    -0x58(%rbp),%rax
  403062:	48 8d 50 28          	lea    0x28(%rax),%rdx
  403066:	48 8d 45 d0          	lea    -0x30(%rbp),%rax
  40306a:	48 89 d6             	mov    %rdx,%rsi
  40306d:	48 89 c7             	mov    %rax,%rdi
  403070:	e8 db df ff ff       	callq  401050 <strcpy@plt>
  403075:	48 8d 55 d0          	lea    -0x30(%rbp),%rdx
  403079:	8b 45 cc             	mov    -0x34(%rbp),%eax
  40307c:	be 33 89 00 00       	mov    $0x8933,%esi
  403081:	89 c7                	mov    %eax,%edi
  403083:	b8 00 00 00 00       	mov    $0x0,%eax
  403088:	e8 a3 e0 ff ff       	callq  401130 <ioctl@plt>
  40308d:	8b 55 e0             	mov    -0x20(%rbp),%edx
  403090:	48 8b 45 a8          	mov    -0x58(%rbp),%rax
  403094:	89 50 14             	mov    %edx,0x14(%rax)
  403097:	48 8d 55 d0          	lea    -0x30(%rbp),%rdx
  40309b:	8b 45 cc             	mov    -0x34(%rbp),%eax
  40309e:	be 27 89 00 00       	mov    $0x8927,%esi
  4030a3:	89 c7                	mov    %eax,%edi
  4030a5:	b8 00 00 00 00       	mov    $0x0,%eax
  4030aa:	e8 81 e0 ff ff       	callq  401130 <ioctl@plt>
  4030af:	48 8b 45 a8          	mov    -0x58(%rbp),%rax
  4030b3:	48 83 c0 18          	add    $0x18,%rax
  4030b7:	48 8d 55 d0          	lea    -0x30(%rbp),%rdx
  4030bb:	48 8d 4a 12          	lea    0x12(%rdx),%rcx
  4030bf:	ba 06 00 00 00       	mov    $0x6,%edx
  4030c4:	48 89 ce             	mov    %rcx,%rsi
  4030c7:	48 89 c7             	mov    %rax,%rdi
  4030ca:	e8 d1 e0 ff ff       	callq  4011a0 <memcpy@plt>
  4030cf:	48 8d 55 d0          	lea    -0x30(%rbp),%rdx
  4030d3:	8b 45 c8             	mov    -0x38(%rbp),%eax
  4030d6:	be 15 89 00 00       	mov    $0x8915,%esi
  4030db:	89 c7                	mov    %eax,%edi
  4030dd:	b8 00 00 00 00       	mov    $0x0,%eax
  4030e2:	e8 49 e0 ff ff       	callq  401130 <ioctl@plt>
  4030e7:	85 c0                	test   %eax,%eax
  4030e9:	79 14                	jns    4030ff <read_iface_info+0xf0>
  4030eb:	bf 97 47 40 00       	mov    $0x404797,%edi
  4030f0:	e8 4b e1 ff ff       	callq  401240 <perror@plt>
  4030f5:	bf 01 00 00 00       	mov    $0x1,%edi
  4030fa:	e8 71 e1 ff ff       	callq  401270 <exit@plt>
  4030ff:	48 8d 45 d0          	lea    -0x30(%rbp),%rax
  403103:	48 83 c0 10          	add    $0x10,%rax
  403107:	8b 40 04             	mov    0x4(%rax),%eax
  40310a:	89 45 b0             	mov    %eax,-0x50(%rbp)
  40310d:	48 8d 45 b0          	lea    -0x50(%rbp),%rax
  403111:	8b 00                	mov    (%rax),%eax
  403113:	89 c7                	mov    %eax,%edi
  403115:	e8 76 e1 ff ff       	callq  401290 <ntohl@plt>
  40311a:	89 c2                	mov    %eax,%edx
  40311c:	48 8b 45 a8          	mov    -0x58(%rbp),%rax
  403120:	89 50 20             	mov    %edx,0x20(%rax)
  403123:	8b 45 b0             	mov    -0x50(%rbp),%eax
  403126:	89 c7                	mov    %eax,%edi
  403128:	e8 53 df ff ff       	callq  401080 <inet_ntoa@plt>
  40312d:	48 89 c2             	mov    %rax,%rdx
  403130:	48 8b 45 a8          	mov    -0x58(%rbp),%rax
  403134:	48 83 c0 38          	add    $0x38,%rax
  403138:	48 89 d6             	mov    %rdx,%rsi
  40313b:	48 89 c7             	mov    %rax,%rdi
  40313e:	e8 0d df ff ff       	callq  401050 <strcpy@plt>
  403143:	48 8d 55 d0          	lea    -0x30(%rbp),%rdx
  403147:	8b 45 c8             	mov    -0x38(%rbp),%eax
  40314a:	be 1b 89 00 00       	mov    $0x891b,%esi
  40314f:	89 c7                	mov    %eax,%edi
  403151:	b8 00 00 00 00       	mov    $0x0,%eax
  403156:	e8 d5 df ff ff       	callq  401130 <ioctl@plt>
  40315b:	85 c0                	test   %eax,%eax
  40315d:	79 14                	jns    403173 <read_iface_info+0x164>
  40315f:	bf ad 47 40 00       	mov    $0x4047ad,%edi
  403164:	e8 d7 e0 ff ff       	callq  401240 <perror@plt>
  403169:	bf 01 00 00 00       	mov    $0x1,%edi
  40316e:	e8 fd e0 ff ff       	callq  401270 <exit@plt>
  403173:	48 8d 45 d0          	lea    -0x30(%rbp),%rax
  403177:	48 83 c0 10          	add    $0x10,%rax
  40317b:	8b 40 04             	mov    0x4(%rax),%eax
  40317e:	89 45 c0             	mov    %eax,-0x40(%rbp)
  403181:	48 8d 45 c0          	lea    -0x40(%rbp),%rax
  403185:	8b 00                	mov    (%rax),%eax
  403187:	89 c7                	mov    %eax,%edi
  403189:	e8 02 e1 ff ff       	callq  401290 <ntohl@plt>
  40318e:	89 c2                	mov    %eax,%edx
  403190:	48 8b 45 a8          	mov    -0x58(%rbp),%rax
  403194:	89 50 24             	mov    %edx,0x24(%rax)
  403197:	8b 45 c8             	mov    -0x38(%rbp),%eax
  40319a:	48 8b 4d f8          	mov    -0x8(%rbp),%rcx
  40319e:	64 48 33 0c 25 28 00 	xor    %fs:0x28,%rcx
  4031a5:	00 00 
  4031a7:	74 05                	je     4031ae <read_iface_info+0x19f>
  4031a9:	e8 f2 de ff ff       	callq  4010a0 <__stack_chk_fail@plt>
  4031ae:	c9                   	leaveq 
  4031af:	c3                   	retq   

00000000004031b0 <find_available_ifaces>:
  4031b0:	55                   	push   %rbp
  4031b1:	48 89 e5             	mov    %rsp,%rbp
  4031b4:	53                   	push   %rbx
  4031b5:	48 81 ec 38 04 00 00 	sub    $0x438,%rsp
  4031bc:	64 48 8b 04 25 28 00 	mov    %fs:0x28,%rax
  4031c3:	00 00 
  4031c5:	48 89 45 e8          	mov    %rax,-0x18(%rbp)
  4031c9:	31 c0                	xor    %eax,%eax
  4031cb:	48 8b 05 fe 34 20 00 	mov    0x2034fe(%rip),%rax        # 6066d0 <instance>
  4031d2:	48 89 c7             	mov    %rax,%rdi
  4031d5:	e8 dd fa ff ff       	callq  402cb7 <init_list_head>
  4031da:	48 8d 85 c0 fb ff ff 	lea    -0x440(%rbp),%rax
  4031e1:	48 89 c7             	mov    %rax,%rdi
  4031e4:	e8 f7 df ff ff       	callq  4011e0 <getifaddrs@plt>
  4031e9:	48 8b 85 c0 fb ff ff 	mov    -0x440(%rbp),%rax
  4031f0:	48 89 85 c8 fb ff ff 	mov    %rax,-0x438(%rbp)
  4031f7:	e9 e6 00 00 00       	jmpq   4032e2 <find_available_ifaces+0x132>
  4031fc:	48 8b 85 c8 fb ff ff 	mov    -0x438(%rbp),%rax
  403203:	48 8b 40 18          	mov    0x18(%rax),%rax
  403207:	48 85 c0             	test   %rax,%rax
  40320a:	0f 84 c1 00 00 00    	je     4032d1 <find_available_ifaces+0x121>
  403210:	48 8b 85 c8 fb ff ff 	mov    -0x438(%rbp),%rax
  403217:	48 8b 40 18          	mov    0x18(%rax),%rax
  40321b:	0f b7 00             	movzwl (%rax),%eax
  40321e:	66 83 f8 11          	cmp    $0x11,%ax
  403222:	0f 85 a9 00 00 00    	jne    4032d1 <find_available_ifaces+0x121>
  403228:	48 8b 85 c8 fb ff ff 	mov    -0x438(%rbp),%rax
  40322f:	48 8b 40 08          	mov    0x8(%rax),%rax
  403233:	be c0 47 40 00       	mov    $0x4047c0,%esi
  403238:	48 89 c7             	mov    %rax,%rdi
  40323b:	e8 90 e0 ff ff       	callq  4012d0 <strstr@plt>
  403240:	48 85 c0             	test   %rax,%rax
  403243:	0f 84 88 00 00 00    	je     4032d1 <find_available_ifaces+0x121>
  403249:	bf 48 00 00 00       	mov    $0x48,%edi
  40324e:	e8 7d df ff ff       	callq  4011d0 <malloc@plt>
  403253:	48 89 85 d8 fb ff ff 	mov    %rax,-0x428(%rbp)
  40325a:	48 8b 85 d8 fb ff ff 	mov    -0x428(%rbp),%rax
  403261:	be 48 00 00 00       	mov    $0x48,%esi
  403266:	48 89 c7             	mov    %rax,%rdi
  403269:	e8 e2 df ff ff       	callq  401250 <bzero@plt>
  40326e:	48 8b 85 d8 fb ff ff 	mov    -0x428(%rbp),%rax
  403275:	48 89 c7             	mov    %rax,%rdi
  403278:	e8 3a fa ff ff       	callq  402cb7 <init_list_head>
  40327d:	48 8b 85 c8 fb ff ff 	mov    -0x438(%rbp),%rax
  403284:	48 8b 40 08          	mov    0x8(%rax),%rax
  403288:	48 8b 95 d8 fb ff ff 	mov    -0x428(%rbp),%rdx
  40328f:	48 83 c2 28          	add    $0x28,%rdx
  403293:	48 89 c6             	mov    %rax,%rsi
  403296:	48 89 d7             	mov    %rdx,%rdi
  403299:	e8 b2 dd ff ff       	callq  401050 <strcpy@plt>
  40329e:	48 8b 05 2b 34 20 00 	mov    0x20342b(%rip),%rax        # 6066d0 <instance>
  4032a5:	48 89 c2             	mov    %rax,%rdx
  4032a8:	48 8b 85 d8 fb ff ff 	mov    -0x428(%rbp),%rax
  4032af:	48 89 d6             	mov    %rdx,%rsi
  4032b2:	48 89 c7             	mov    %rax,%rdi
  4032b5:	e8 64 fa ff ff       	callq  402d1e <list_add_tail>
  4032ba:	48 8b 05 0f 34 20 00 	mov    0x20340f(%rip),%rax        # 6066d0 <instance>
  4032c1:	48 8b 15 08 34 20 00 	mov    0x203408(%rip),%rdx        # 6066d0 <instance>
  4032c8:	8b 52 10             	mov    0x10(%rdx),%edx
  4032cb:	83 c2 01             	add    $0x1,%edx
  4032ce:	89 50 10             	mov    %edx,0x10(%rax)
  4032d1:	48 8b 85 c8 fb ff ff 	mov    -0x438(%rbp),%rax
  4032d8:	48 8b 00             	mov    (%rax),%rax
  4032db:	48 89 85 c8 fb ff ff 	mov    %rax,-0x438(%rbp)
  4032e2:	48 83 bd c8 fb ff ff 	cmpq   $0x0,-0x438(%rbp)
  4032e9:	00 
  4032ea:	0f 85 0c ff ff ff    	jne    4031fc <find_available_ifaces+0x4c>
  4032f0:	48 8b 85 c0 fb ff ff 	mov    -0x440(%rbp),%rax
  4032f7:	48 89 c7             	mov    %rax,%rdi
  4032fa:	e8 11 df ff ff       	callq  401210 <freeifaddrs@plt>
  4032ff:	48 8b 05 ca 33 20 00 	mov    0x2033ca(%rip),%rax        # 6066d0 <instance>
  403306:	8b 40 10             	mov    0x10(%rax),%eax
  403309:	85 c0                	test   %eax,%eax
  40330b:	75 38                	jne    403345 <find_available_ifaces+0x195>
  40330d:	8b 05 b5 33 20 00    	mov    0x2033b5(%rip),%eax        # 6066c8 <this_log_level>
  403313:	83 f8 03             	cmp    $0x3,%eax
  403316:	77 22                	ja     40333a <find_available_ifaces+0x18a>
  403318:	48 8b 15 19 2f 20 00 	mov    0x202f19(%rip),%rdx        # 606238 <log_level_str+0x18>
  40331f:	48 8b 05 3a 2f 20 00 	mov    0x202f3a(%rip),%rax        # 606260 <stderr@@GLIBC_2.2.5>
  403326:	be c8 47 40 00       	mov    $0x4047c8,%esi
  40332b:	48 89 c7             	mov    %rax,%rdi
  40332e:	b8 00 00 00 00       	mov    $0x0,%eax
  403333:	e8 58 de ff ff       	callq  401190 <fprintf@plt>
  403338:	eb 01                	jmp    40333b <find_available_ifaces+0x18b>
  40333a:	90                   	nop
  40333b:	bf 01 00 00 00       	mov    $0x1,%edi
  403340:	e8 2b df ff ff       	callq  401270 <exit@plt>
  403345:	48 c7 85 e0 fb ff ff 	movq   $0x0,-0x420(%rbp)
  40334c:	00 00 00 00 
  403350:	48 8d 95 e8 fb ff ff 	lea    -0x418(%rbp),%rdx
  403357:	b8 00 00 00 00       	mov    $0x0,%eax
  40335c:	b9 7f 00 00 00       	mov    $0x7f,%ecx
  403361:	48 89 d7             	mov    %rdx,%rdi
  403364:	f3 48 ab             	rep stos %rax,%es:(%rdi)
  403367:	48 c7 85 d0 fb ff ff 	movq   $0x0,-0x430(%rbp)
  40336e:	00 00 00 00 
  403372:	48 8b 05 57 33 20 00 	mov    0x203357(%rip),%rax        # 6066d0 <instance>
  403379:	48 8b 00             	mov    (%rax),%rax
  40337c:	48 89 85 d0 fb ff ff 	mov    %rax,-0x430(%rbp)
  403383:	eb 4d                	jmp    4033d2 <find_available_ifaces+0x222>
  403385:	48 8b 85 d0 fb ff ff 	mov    -0x430(%rbp),%rax
  40338c:	48 8d 58 28          	lea    0x28(%rax),%rbx
  403390:	48 8d 85 e0 fb ff ff 	lea    -0x420(%rbp),%rax
  403397:	48 89 c7             	mov    %rax,%rdi
  40339a:	e8 f1 dc ff ff       	callq  401090 <strlen@plt>
  40339f:	48 89 c2             	mov    %rax,%rdx
  4033a2:	48 8d 85 e0 fb ff ff 	lea    -0x420(%rbp),%rax
  4033a9:	48 01 d0             	add    %rdx,%rax
  4033ac:	48 89 da             	mov    %rbx,%rdx
  4033af:	be f2 47 40 00       	mov    $0x4047f2,%esi
  4033b4:	48 89 c7             	mov    %rax,%rdi
  4033b7:	b8 00 00 00 00       	mov    $0x0,%eax
  4033bc:	e8 9f de ff ff       	callq  401260 <sprintf@plt>
  4033c1:	48 8b 85 d0 fb ff ff 	mov    -0x430(%rbp),%rax
  4033c8:	48 8b 00             	mov    (%rax),%rax
  4033cb:	48 89 85 d0 fb ff ff 	mov    %rax,-0x430(%rbp)
  4033d2:	48 8b 05 f7 32 20 00 	mov    0x2032f7(%rip),%rax        # 6066d0 <instance>
  4033d9:	48 39 85 d0 fb ff ff 	cmp    %rax,-0x430(%rbp)
  4033e0:	75 a3                	jne    403385 <find_available_ifaces+0x1d5>
  4033e2:	8b 05 e0 32 20 00    	mov    0x2032e0(%rip),%eax        # 6066c8 <this_log_level>
  4033e8:	85 c0                	test   %eax,%eax
  4033ea:	75 29                	jne    403415 <find_available_ifaces+0x265>
  4033ec:	48 8b 15 2d 2e 20 00 	mov    0x202e2d(%rip),%rdx        # 606220 <log_level_str>
  4033f3:	48 8b 05 66 2e 20 00 	mov    0x202e66(%rip),%rax        # 606260 <stderr@@GLIBC_2.2.5>
  4033fa:	48 8d 8d e0 fb ff ff 	lea    -0x420(%rbp),%rcx
  403401:	be f8 47 40 00       	mov    $0x4047f8,%esi
  403406:	48 89 c7             	mov    %rax,%rdi
  403409:	b8 00 00 00 00       	mov    $0x0,%eax
  40340e:	e8 7d dd ff ff       	callq  401190 <fprintf@plt>
  403413:	eb 01                	jmp    403416 <find_available_ifaces+0x266>
  403415:	90                   	nop
  403416:	90                   	nop
  403417:	48 8b 45 e8          	mov    -0x18(%rbp),%rax
  40341b:	64 48 33 04 25 28 00 	xor    %fs:0x28,%rax
  403422:	00 00 
  403424:	74 05                	je     40342b <find_available_ifaces+0x27b>
  403426:	e8 75 dc ff ff       	callq  4010a0 <__stack_chk_fail@plt>
  40342b:	48 81 c4 38 04 00 00 	add    $0x438,%rsp
  403432:	5b                   	pop    %rbx
  403433:	5d                   	pop    %rbp
  403434:	c3                   	retq   

0000000000403435 <init_all_ifaces>:
  403435:	55                   	push   %rbp
  403436:	48 89 e5             	mov    %rsp,%rbp
  403439:	53                   	push   %rbx
  40343a:	48 83 ec 18          	sub    $0x18,%rsp
  40343e:	b8 00 00 00 00       	mov    $0x0,%eax
  403443:	e8 68 fd ff ff       	callq  4031b0 <find_available_ifaces>
  403448:	48 8b 1d 81 32 20 00 	mov    0x203281(%rip),%rbx        # 6066d0 <instance>
  40344f:	48 8b 05 7a 32 20 00 	mov    0x20327a(%rip),%rax        # 6066d0 <instance>
  403456:	8b 40 10             	mov    0x10(%rax),%eax
  403459:	48 98                	cltq   
  40345b:	48 c1 e0 03          	shl    $0x3,%rax
  40345f:	48 89 c7             	mov    %rax,%rdi
  403462:	e8 69 dd ff ff       	callq  4011d0 <malloc@plt>
  403467:	48 89 43 18          	mov    %rax,0x18(%rbx)
  40346b:	48 8b 05 5e 32 20 00 	mov    0x20325e(%rip),%rax        # 6066d0 <instance>
  403472:	8b 40 10             	mov    0x10(%rax),%eax
  403475:	48 98                	cltq   
  403477:	48 8d 14 c5 00 00 00 	lea    0x0(,%rax,8),%rdx
  40347e:	00 
  40347f:	48 8b 05 4a 32 20 00 	mov    0x20324a(%rip),%rax        # 6066d0 <instance>
  403486:	48 8b 40 18          	mov    0x18(%rax),%rax
  40348a:	48 89 d6             	mov    %rdx,%rsi
  40348d:	48 89 c7             	mov    %rax,%rdi
  403490:	e8 bb dd ff ff       	callq  401250 <bzero@plt>
  403495:	48 c7 45 e8 00 00 00 	movq   $0x0,-0x18(%rbp)
  40349c:	00 
  40349d:	c7 45 e0 00 00 00 00 	movl   $0x0,-0x20(%rbp)
  4034a4:	48 8b 05 25 32 20 00 	mov    0x203225(%rip),%rax        # 6066d0 <instance>
  4034ab:	48 8b 00             	mov    (%rax),%rax
  4034ae:	48 89 45 e8          	mov    %rax,-0x18(%rbp)
  4034b2:	eb 76                	jmp    40352a <init_all_ifaces+0xf5>
  4034b4:	48 8b 45 e8          	mov    -0x18(%rbp),%rax
  4034b8:	48 89 c7             	mov    %rax,%rdi
  4034bb:	e8 4f fb ff ff       	callq  40300f <read_iface_info>
  4034c0:	89 45 e4             	mov    %eax,-0x1c(%rbp)
  4034c3:	48 8b 05 06 32 20 00 	mov    0x203206(%rip),%rax        # 6066d0 <instance>
  4034ca:	48 8b 40 18          	mov    0x18(%rax),%rax
  4034ce:	8b 55 e0             	mov    -0x20(%rbp),%edx
  4034d1:	48 63 d2             	movslq %edx,%rdx
  4034d4:	48 c1 e2 03          	shl    $0x3,%rdx
  4034d8:	48 01 c2             	add    %rax,%rdx
  4034db:	8b 45 e4             	mov    -0x1c(%rbp),%eax
  4034de:	89 02                	mov    %eax,(%rdx)
  4034e0:	48 8b 05 e9 31 20 00 	mov    0x2031e9(%rip),%rax        # 6066d0 <instance>
  4034e7:	48 8b 40 18          	mov    0x18(%rax),%rax
  4034eb:	8b 55 e0             	mov    -0x20(%rbp),%edx
  4034ee:	48 63 d2             	movslq %edx,%rdx
  4034f1:	48 c1 e2 03          	shl    $0x3,%rdx
  4034f5:	48 01 c2             	add    %rax,%rdx
  4034f8:	48 8b 05 d1 31 20 00 	mov    0x2031d1(%rip),%rax        # 6066d0 <instance>
  4034ff:	48 8b 40 18          	mov    0x18(%rax),%rax
  403503:	8b 4d e0             	mov    -0x20(%rbp),%ecx
  403506:	48 63 c9             	movslq %ecx,%rcx
  403509:	48 c1 e1 03          	shl    $0x3,%rcx
  40350d:	48 01 c8             	add    %rcx,%rax
  403510:	0f b7 40 04          	movzwl 0x4(%rax),%eax
  403514:	83 c8 01             	or     $0x1,%eax
  403517:	66 89 42 04          	mov    %ax,0x4(%rdx)
  40351b:	83 45 e0 01          	addl   $0x1,-0x20(%rbp)
  40351f:	48 8b 45 e8          	mov    -0x18(%rbp),%rax
  403523:	48 8b 00             	mov    (%rax),%rax
  403526:	48 89 45 e8          	mov    %rax,-0x18(%rbp)
  40352a:	48 8b 05 9f 31 20 00 	mov    0x20319f(%rip),%rax        # 6066d0 <instance>
  403531:	48 39 45 e8          	cmp    %rax,-0x18(%rbp)
  403535:	0f 85 79 ff ff ff    	jne    4034b4 <init_all_ifaces+0x7f>
  40353b:	90                   	nop
  40353c:	48 83 c4 18          	add    $0x18,%rsp
  403540:	5b                   	pop    %rbx
  403541:	5d                   	pop    %rbp
  403542:	c3                   	retq   

0000000000403543 <init_ustack>:
  403543:	55                   	push   %rbp
  403544:	48 89 e5             	mov    %rsp,%rbp
  403547:	bf 20 00 00 00       	mov    $0x20,%edi
  40354c:	e8 7f dc ff ff       	callq  4011d0 <malloc@plt>
  403551:	48 89 05 78 31 20 00 	mov    %rax,0x203178(%rip)        # 6066d0 <instance>
  403558:	48 8b 05 71 31 20 00 	mov    0x203171(%rip),%rax        # 6066d0 <instance>
  40355f:	be 20 00 00 00       	mov    $0x20,%esi
  403564:	48 89 c7             	mov    %rax,%rdi
  403567:	e8 e4 dc ff ff       	callq  401250 <bzero@plt>
  40356c:	48 8b 05 5d 31 20 00 	mov    0x20315d(%rip),%rax        # 6066d0 <instance>
  403573:	48 89 c7             	mov    %rax,%rdi
  403576:	e8 3c f7 ff ff       	callq  402cb7 <init_list_head>
  40357b:	b8 00 00 00 00       	mov    $0x0,%eax
  403580:	e8 b0 fe ff ff       	callq  403435 <init_all_ifaces>
  403585:	b8 00 00 00 00       	mov    $0x0,%eax
  40358a:	e8 32 e4 ff ff       	callq  4019c1 <arpcache_init>
  40358f:	b8 00 00 00 00       	mov    $0x0,%eax
  403594:	e8 3a 04 00 00       	callq  4039d3 <init_rtable>
  403599:	b8 00 00 00 00       	mov    $0x0,%eax
  40359e:	e8 8e 0c 00 00       	callq  404231 <load_rtable_from_kernel>
  4035a3:	90                   	nop
  4035a4:	5d                   	pop    %rbp
  4035a5:	c3                   	retq   

00000000004035a6 <ustack_run>:
  4035a6:	55                   	push   %rbp
  4035a7:	48 89 e5             	mov    %rsp,%rbp
  4035aa:	48 81 ec 40 06 00 00 	sub    $0x640,%rsp
  4035b1:	64 48 8b 04 25 28 00 	mov    %fs:0x28,%rax
  4035b8:	00 00 
  4035ba:	48 89 45 f8          	mov    %rax,-0x8(%rbp)
  4035be:	31 c0                	xor    %eax,%eax
  4035c0:	c7 85 c0 f9 ff ff 14 	movl   $0x14,-0x640(%rbp)
  4035c7:	00 00 00 
  4035ca:	b8 00 00 00 00       	mov    $0x0,%eax
  4035cf:	e8 34 05 00 00       	callq  403b08 <print_rtable>
  4035d4:	48 8b 05 f5 30 20 00 	mov    0x2030f5(%rip),%rax        # 6066d0 <instance>
  4035db:	8b 40 10             	mov    0x10(%rax),%eax
  4035de:	48 63 c8             	movslq %eax,%rcx
  4035e1:	48 8b 05 e8 30 20 00 	mov    0x2030e8(%rip),%rax        # 6066d0 <instance>
  4035e8:	48 8b 40 18          	mov    0x18(%rax),%rax
  4035ec:	ba ff ff ff ff       	mov    $0xffffffff,%edx
  4035f1:	48 89 ce             	mov    %rcx,%rsi
  4035f4:	48 89 c7             	mov    %rax,%rdi
  4035f7:	e8 24 dc ff ff       	callq  401220 <poll@plt>
  4035fc:	89 85 c8 f9 ff ff    	mov    %eax,-0x638(%rbp)
  403602:	83 bd c8 f9 ff ff 00 	cmpl   $0x0,-0x638(%rbp)
  403609:	79 24                	jns    40362f <ustack_run+0x89>
  40360b:	bf 20 48 40 00       	mov    $0x404820,%edi
  403610:	e8 2b dc ff ff       	callq  401240 <perror@plt>
  403615:	90                   	nop
  403616:	90                   	nop
  403617:	48 8b 45 f8          	mov    -0x8(%rbp),%rax
  40361b:	64 48 33 04 25 28 00 	xor    %fs:0x28,%rax
  403622:	00 00 
  403624:	0f 84 b8 01 00 00    	je     4037e2 <ustack_run+0x23c>
  40362a:	e9 ae 01 00 00       	jmpq   4037dd <ustack_run+0x237>
  40362f:	83 bd c8 f9 ff ff 00 	cmpl   $0x0,-0x638(%rbp)
  403636:	0f 84 9b 01 00 00    	je     4037d7 <ustack_run+0x231>
  40363c:	c7 85 c4 f9 ff ff 00 	movl   $0x0,-0x63c(%rbp)
  403643:	00 00 00 
  403646:	e9 71 01 00 00       	jmpq   4037bc <ustack_run+0x216>
  40364b:	48 8b 05 7e 30 20 00 	mov    0x20307e(%rip),%rax        # 6066d0 <instance>
  403652:	48 8b 40 18          	mov    0x18(%rax),%rax
  403656:	8b 95 c4 f9 ff ff    	mov    -0x63c(%rbp),%edx
  40365c:	48 63 d2             	movslq %edx,%rdx
  40365f:	48 c1 e2 03          	shl    $0x3,%rdx
  403663:	48 01 d0             	add    %rdx,%rax
  403666:	0f b7 40 06          	movzwl 0x6(%rax),%eax
  40366a:	98                   	cwtl   
  40366b:	83 e0 01             	and    $0x1,%eax
  40366e:	85 c0                	test   %eax,%eax
  403670:	0f 84 3f 01 00 00    	je     4037b5 <ustack_run+0x20f>
  403676:	48 8b 05 53 30 20 00 	mov    0x203053(%rip),%rax        # 6066d0 <instance>
  40367d:	48 8b 40 18          	mov    0x18(%rax),%rax
  403681:	8b 95 c4 f9 ff ff    	mov    -0x63c(%rbp),%edx
  403687:	48 63 d2             	movslq %edx,%rdx
  40368a:	48 c1 e2 03          	shl    $0x3,%rdx
  40368e:	48 01 d0             	add    %rdx,%rax
  403691:	8b 00                	mov    (%rax),%eax
  403693:	48 8d 8d c0 f9 ff ff 	lea    -0x640(%rbp),%rcx
  40369a:	48 8d 95 e0 f9 ff ff 	lea    -0x620(%rbp),%rdx
  4036a1:	48 8d b5 00 fa ff ff 	lea    -0x600(%rbp),%rsi
  4036a8:	49 89 c9             	mov    %rcx,%r9
  4036ab:	49 89 d0             	mov    %rdx,%r8
  4036ae:	b9 00 00 00 00       	mov    $0x0,%ecx
  4036b3:	ba ea 05 00 00       	mov    $0x5ea,%edx
  4036b8:	89 c7                	mov    %eax,%edi
  4036ba:	e8 31 db ff ff       	callq  4011f0 <recvfrom@plt>
  4036bf:	89 85 cc f9 ff ff    	mov    %eax,-0x634(%rbp)
  4036c5:	83 bd cc f9 ff ff 00 	cmpl   $0x0,-0x634(%rbp)
  4036cc:	7f 45                	jg     403713 <ustack_run+0x16d>
  4036ce:	8b 05 f4 2f 20 00    	mov    0x202ff4(%rip),%eax        # 6066c8 <this_log_level>
  4036d4:	83 f8 03             	cmp    $0x3,%eax
  4036d7:	0f 87 d4 00 00 00    	ja     4037b1 <ustack_run+0x20b>
  4036dd:	e8 5e d9 ff ff       	callq  401040 <__errno_location@plt>
  4036e2:	8b 00                	mov    (%rax),%eax
  4036e4:	89 c7                	mov    %eax,%edi
  4036e6:	e8 b5 db ff ff       	callq  4012a0 <strerror@plt>
  4036eb:	48 89 c1             	mov    %rax,%rcx
  4036ee:	48 8b 15 43 2b 20 00 	mov    0x202b43(%rip),%rdx        # 606238 <log_level_str+0x18>
  4036f5:	48 8b 05 64 2b 20 00 	mov    0x202b64(%rip),%rax        # 606260 <stderr@@GLIBC_2.2.5>
  4036fc:	be 2d 48 40 00       	mov    $0x40482d,%esi
  403701:	48 89 c7             	mov    %rax,%rdi
  403704:	b8 00 00 00 00       	mov    $0x0,%eax
  403709:	e8 82 da ff ff       	callq  401190 <fprintf@plt>
  40370e:	e9 a2 00 00 00       	jmpq   4037b5 <ustack_run+0x20f>
  403713:	0f b6 85 ea f9 ff ff 	movzbl -0x616(%rbp),%eax
  40371a:	3c 04                	cmp    $0x4,%al
  40371c:	0f 84 93 00 00 00    	je     4037b5 <ustack_run+0x20f>
  403722:	48 8b 05 a7 2f 20 00 	mov    0x202fa7(%rip),%rax        # 6066d0 <instance>
  403729:	48 8b 40 18          	mov    0x18(%rax),%rax
  40372d:	8b 95 c4 f9 ff ff    	mov    -0x63c(%rbp),%edx
  403733:	48 63 d2             	movslq %edx,%rdx
  403736:	48 c1 e2 03          	shl    $0x3,%rdx
  40373a:	48 01 d0             	add    %rdx,%rax
  40373d:	8b 00                	mov    (%rax),%eax
  40373f:	89 c7                	mov    %eax,%edi
  403741:	e8 06 f6 ff ff       	callq  402d4c <fd_to_iface>
  403746:	48 89 85 d0 f9 ff ff 	mov    %rax,-0x630(%rbp)
  40374d:	8b 85 cc f9 ff ff    	mov    -0x634(%rbp),%eax
  403753:	48 98                	cltq   
  403755:	48 89 c7             	mov    %rax,%rdi
  403758:	e8 73 da ff ff       	callq  4011d0 <malloc@plt>
  40375d:	48 89 85 d8 f9 ff ff 	mov    %rax,-0x628(%rbp)
  403764:	48 83 bd d8 f9 ff ff 	cmpq   $0x0,-0x628(%rbp)
  40376b:	00 
  40376c:	74 46                	je     4037b4 <ustack_run+0x20e>
  40376e:	8b 85 cc f9 ff ff    	mov    -0x634(%rbp),%eax
  403774:	48 63 d0             	movslq %eax,%rdx
  403777:	48 8d 8d 00 fa ff ff 	lea    -0x600(%rbp),%rcx
  40377e:	48 8b 85 d8 f9 ff ff 	mov    -0x628(%rbp),%rax
  403785:	48 89 ce             	mov    %rcx,%rsi
  403788:	48 89 c7             	mov    %rax,%rdi
  40378b:	e8 10 da ff ff       	callq  4011a0 <memcpy@plt>
  403790:	8b 95 cc f9 ff ff    	mov    -0x634(%rbp),%edx
  403796:	48 8b 8d d8 f9 ff ff 	mov    -0x628(%rbp),%rcx
  40379d:	48 8b 85 d0 f9 ff ff 	mov    -0x630(%rbp),%rax
  4037a4:	48 89 ce             	mov    %rcx,%rsi
  4037a7:	48 89 c7             	mov    %rax,%rdi
  4037aa:	e8 0d f6 ff ff       	callq  402dbc <handle_packet>
  4037af:	eb 04                	jmp    4037b5 <ustack_run+0x20f>
  4037b1:	90                   	nop
  4037b2:	eb 01                	jmp    4037b5 <ustack_run+0x20f>
  4037b4:	90                   	nop
  4037b5:	83 85 c4 f9 ff ff 01 	addl   $0x1,-0x63c(%rbp)
  4037bc:	48 8b 05 0d 2f 20 00 	mov    0x202f0d(%rip),%rax        # 6066d0 <instance>
  4037c3:	8b 40 10             	mov    0x10(%rax),%eax
  4037c6:	3b 85 c4 f9 ff ff    	cmp    -0x63c(%rbp),%eax
  4037cc:	0f 8f 79 fe ff ff    	jg     40364b <ustack_run+0xa5>
  4037d2:	e9 fd fd ff ff       	jmpq   4035d4 <ustack_run+0x2e>
  4037d7:	90                   	nop
  4037d8:	e9 f7 fd ff ff       	jmpq   4035d4 <ustack_run+0x2e>
  4037dd:	e8 be d8 ff ff       	callq  4010a0 <__stack_chk_fail@plt>
  4037e2:	c9                   	leaveq 
  4037e3:	c3                   	retq   

00000000004037e4 <main>:
  4037e4:	55                   	push   %rbp
  4037e5:	48 89 e5             	mov    %rsp,%rbp
  4037e8:	48 83 ec 10          	sub    $0x10,%rsp
  4037ec:	89 7d fc             	mov    %edi,-0x4(%rbp)
  4037ef:	48 89 75 f0          	mov    %rsi,-0x10(%rbp)
  4037f3:	e8 b8 d8 ff ff       	callq  4010b0 <getuid@plt>
  4037f8:	85 c0                	test   %eax,%eax
  4037fa:	74 1d                	je     403819 <main+0x35>
  4037fc:	e8 1f d9 ff ff       	callq  401120 <geteuid@plt>
  403801:	85 c0                	test   %eax,%eax
  403803:	74 14                	je     403819 <main+0x35>
  403805:	bf 50 48 40 00       	mov    $0x404850,%edi
  40380a:	e8 51 d8 ff ff       	callq  401060 <puts@plt>
  40380f:	bf 01 00 00 00       	mov    $0x1,%edi
  403814:	e8 57 da ff ff       	callq  401270 <exit@plt>
  403819:	b8 00 00 00 00       	mov    $0x0,%eax
  40381e:	e8 20 fd ff ff       	callq  403543 <init_ustack>
  403823:	b8 00 00 00 00       	mov    $0x0,%eax
  403828:	e8 79 fd ff ff       	callq  4035a6 <ustack_run>
  40382d:	b8 00 00 00 00       	mov    $0x0,%eax
  403832:	c9                   	leaveq 
  403833:	c3                   	retq   

0000000000403834 <iface_send_packet>:
  403834:	55                   	push   %rbp
  403835:	48 89 e5             	mov    %rsp,%rbp
  403838:	48 83 ec 50          	sub    $0x50,%rsp
  40383c:	48 89 7d c8          	mov    %rdi,-0x38(%rbp)
  403840:	48 89 75 c0          	mov    %rsi,-0x40(%rbp)
  403844:	89 55 bc             	mov    %edx,-0x44(%rbp)
  403847:	64 48 8b 04 25 28 00 	mov    %fs:0x28,%rax
  40384e:	00 00 
  403850:	48 89 45 f8          	mov    %rax,-0x8(%rbp)
  403854:	31 c0                	xor    %eax,%eax
  403856:	48 8d 45 e0          	lea    -0x20(%rbp),%rax
  40385a:	ba 14 00 00 00       	mov    $0x14,%edx
  40385f:	be 00 00 00 00       	mov    $0x0,%esi
  403864:	48 89 c7             	mov    %rax,%rdi
  403867:	e8 a4 d8 ff ff       	callq  401110 <memset@plt>
  40386c:	66 c7 45 e0 11 00    	movw   $0x11,-0x20(%rbp)
  403872:	48 8b 45 c8          	mov    -0x38(%rbp),%rax
  403876:	8b 40 14             	mov    0x14(%rax),%eax
  403879:	89 45 e4             	mov    %eax,-0x1c(%rbp)
  40387c:	c6 45 eb 06          	movb   $0x6,-0x15(%rbp)
  403880:	bf 06 08 00 00       	mov    $0x806,%edi
  403885:	e8 36 d8 ff ff       	callq  4010c0 <htons@plt>
  40388a:	66 89 45 e2          	mov    %ax,-0x1e(%rbp)
  40388e:	48 8b 45 c0          	mov    -0x40(%rbp),%rax
  403892:	48 89 45 d8          	mov    %rax,-0x28(%rbp)
  403896:	48 8b 45 d8          	mov    -0x28(%rbp),%rax
  40389a:	48 8d 55 e0          	lea    -0x20(%rbp),%rdx
  40389e:	48 8d 4a 0c          	lea    0xc(%rdx),%rcx
  4038a2:	ba 06 00 00 00       	mov    $0x6,%edx
  4038a7:	48 89 c6             	mov    %rax,%rsi
  4038aa:	48 89 cf             	mov    %rcx,%rdi
  4038ad:	e8 ee d8 ff ff       	callq  4011a0 <memcpy@plt>
  4038b2:	8b 45 bc             	mov    -0x44(%rbp),%eax
  4038b5:	48 63 d0             	movslq %eax,%rdx
  4038b8:	48 8b 45 c8          	mov    -0x38(%rbp),%rax
  4038bc:	8b 40 10             	mov    0x10(%rax),%eax
  4038bf:	48 8d 4d e0          	lea    -0x20(%rbp),%rcx
  4038c3:	48 8b 75 c0          	mov    -0x40(%rbp),%rsi
  4038c7:	41 b9 14 00 00 00    	mov    $0x14,%r9d
  4038cd:	49 89 c8             	mov    %rcx,%r8
  4038d0:	b9 00 00 00 00       	mov    $0x0,%ecx
  4038d5:	89 c7                	mov    %eax,%edi
  4038d7:	e8 64 d8 ff ff       	callq  401140 <sendto@plt>
  4038dc:	48 85 c0             	test   %rax,%rax
  4038df:	79 0a                	jns    4038eb <iface_send_packet+0xb7>
  4038e1:	bf 78 48 40 00       	mov    $0x404878,%edi
  4038e6:	e8 55 d9 ff ff       	callq  401240 <perror@plt>
  4038eb:	48 8b 45 c0          	mov    -0x40(%rbp),%rax
  4038ef:	48 89 c7             	mov    %rax,%rdi
  4038f2:	e8 19 d7 ff ff       	callq  401010 <free@plt>
  4038f7:	90                   	nop
  4038f8:	48 8b 45 f8          	mov    -0x8(%rbp),%rax
  4038fc:	64 48 33 04 25 28 00 	xor    %fs:0x28,%rax
  403903:	00 00 
  403905:	74 05                	je     40390c <iface_send_packet+0xd8>
  403907:	e8 94 d7 ff ff       	callq  4010a0 <__stack_chk_fail@plt>
  40390c:	c9                   	leaveq 
  40390d:	c3                   	retq   

000000000040390e <init_list_head>:
  40390e:	55                   	push   %rbp
  40390f:	48 89 e5             	mov    %rsp,%rbp
  403912:	48 89 7d f8          	mov    %rdi,-0x8(%rbp)
  403916:	48 8b 45 f8          	mov    -0x8(%rbp),%rax
  40391a:	48 8b 55 f8          	mov    -0x8(%rbp),%rdx
  40391e:	48 89 50 08          	mov    %rdx,0x8(%rax)
  403922:	48 8b 45 f8          	mov    -0x8(%rbp),%rax
  403926:	48 8b 50 08          	mov    0x8(%rax),%rdx
  40392a:	48 8b 45 f8          	mov    -0x8(%rbp),%rax
  40392e:	48 89 10             	mov    %rdx,(%rax)
  403931:	90                   	nop
  403932:	5d                   	pop    %rbp
  403933:	c3                   	retq   

0000000000403934 <list_insert>:
  403934:	55                   	push   %rbp
  403935:	48 89 e5             	mov    %rsp,%rbp
  403938:	48 89 7d f8          	mov    %rdi,-0x8(%rbp)
  40393c:	48 89 75 f0          	mov    %rsi,-0x10(%rbp)
  403940:	48 89 55 e8          	mov    %rdx,-0x18(%rbp)
  403944:	48 8b 45 e8          	mov    -0x18(%rbp),%rax
  403948:	48 8b 55 f8          	mov    -0x8(%rbp),%rdx
  40394c:	48 89 50 08          	mov    %rdx,0x8(%rax)
  403950:	48 8b 45 f0          	mov    -0x10(%rbp),%rax
  403954:	48 8b 55 f8          	mov    -0x8(%rbp),%rdx
  403958:	48 89 10             	mov    %rdx,(%rax)
  40395b:	48 8b 45 f8          	mov    -0x8(%rbp),%rax
  40395f:	48 8b 55 e8          	mov    -0x18(%rbp),%rdx
  403963:	48 89 10             	mov    %rdx,(%rax)
  403966:	48 8b 45 f8          	mov    -0x8(%rbp),%rax
  40396a:	48 8b 55 f0          	mov    -0x10(%rbp),%rdx
  40396e:	48 89 50 08          	mov    %rdx,0x8(%rax)
  403972:	90                   	nop
  403973:	5d                   	pop    %rbp
  403974:	c3                   	retq   

0000000000403975 <list_add_tail>:
  403975:	55                   	push   %rbp
  403976:	48 89 e5             	mov    %rsp,%rbp
  403979:	48 83 ec 10          	sub    $0x10,%rsp
  40397d:	48 89 7d f8          	mov    %rdi,-0x8(%rbp)
  403981:	48 89 75 f0          	mov    %rsi,-0x10(%rbp)
  403985:	48 8b 45 f0          	mov    -0x10(%rbp),%rax
  403989:	48 8b 48 08          	mov    0x8(%rax),%rcx
  40398d:	48 8b 55 f0          	mov    -0x10(%rbp),%rdx
  403991:	48 8b 45 f8          	mov    -0x8(%rbp),%rax
  403995:	48 89 ce             	mov    %rcx,%rsi
  403998:	48 89 c7             	mov    %rax,%rdi
  40399b:	e8 94 ff ff ff       	callq  403934 <list_insert>
  4039a0:	90                   	nop
  4039a1:	c9                   	leaveq 
  4039a2:	c3                   	retq   

00000000004039a3 <list_delete_entry>:
  4039a3:	55                   	push   %rbp
  4039a4:	48 89 e5             	mov    %rsp,%rbp
  4039a7:	48 89 7d f8          	mov    %rdi,-0x8(%rbp)
  4039ab:	48 8b 45 f8          	mov    -0x8(%rbp),%rax
  4039af:	48 8b 00             	mov    (%rax),%rax
  4039b2:	48 8b 55 f8          	mov    -0x8(%rbp),%rdx
  4039b6:	48 8b 52 08          	mov    0x8(%rdx),%rdx
  4039ba:	48 89 50 08          	mov    %rdx,0x8(%rax)
  4039be:	48 8b 45 f8          	mov    -0x8(%rbp),%rax
  4039c2:	48 8b 40 08          	mov    0x8(%rax),%rax
  4039c6:	48 8b 55 f8          	mov    -0x8(%rbp),%rdx
  4039ca:	48 8b 12             	mov    (%rdx),%rdx
  4039cd:	48 89 10             	mov    %rdx,(%rax)
  4039d0:	90                   	nop
  4039d1:	5d                   	pop    %rbp
  4039d2:	c3                   	retq   

00000000004039d3 <init_rtable>:
  4039d3:	55                   	push   %rbp
  4039d4:	48 89 e5             	mov    %rsp,%rbp
  4039d7:	bf e0 66 60 00       	mov    $0x6066e0,%edi
  4039dc:	e8 2d ff ff ff       	callq  40390e <init_list_head>
  4039e1:	90                   	nop
  4039e2:	5d                   	pop    %rbp
  4039e3:	c3                   	retq   

00000000004039e4 <new_rt_entry>:
  4039e4:	55                   	push   %rbp
  4039e5:	48 89 e5             	mov    %rsp,%rbp
  4039e8:	48 83 ec 30          	sub    $0x30,%rsp
  4039ec:	89 7d ec             	mov    %edi,-0x14(%rbp)
  4039ef:	89 75 e8             	mov    %esi,-0x18(%rbp)
  4039f2:	89 55 e4             	mov    %edx,-0x1c(%rbp)
  4039f5:	48 89 4d d8          	mov    %rcx,-0x28(%rbp)
  4039f9:	bf 38 00 00 00       	mov    $0x38,%edi
  4039fe:	e8 cd d7 ff ff       	callq  4011d0 <malloc@plt>
  403a03:	48 89 45 f8          	mov    %rax,-0x8(%rbp)
  403a07:	48 8b 45 f8          	mov    -0x8(%rbp),%rax
  403a0b:	ba 38 00 00 00       	mov    $0x38,%edx
  403a10:	be 00 00 00 00       	mov    $0x0,%esi
  403a15:	48 89 c7             	mov    %rax,%rdi
  403a18:	e8 f3 d6 ff ff       	callq  401110 <memset@plt>
  403a1d:	48 8b 45 f8          	mov    -0x8(%rbp),%rax
  403a21:	48 89 c7             	mov    %rax,%rdi
  403a24:	e8 e5 fe ff ff       	callq  40390e <init_list_head>
  403a29:	48 8b 45 f8          	mov    -0x8(%rbp),%rax
  403a2d:	8b 55 ec             	mov    -0x14(%rbp),%edx
  403a30:	89 50 10             	mov    %edx,0x10(%rax)
  403a33:	48 8b 45 f8          	mov    -0x8(%rbp),%rax
  403a37:	8b 55 e8             	mov    -0x18(%rbp),%edx
  403a3a:	89 50 14             	mov    %edx,0x14(%rax)
  403a3d:	48 8b 45 f8          	mov    -0x8(%rbp),%rax
  403a41:	8b 55 e4             	mov    -0x1c(%rbp),%edx
  403a44:	89 50 18             	mov    %edx,0x18(%rax)
  403a47:	48 8b 45 f8          	mov    -0x8(%rbp),%rax
  403a4b:	48 8b 55 d8          	mov    -0x28(%rbp),%rdx
  403a4f:	48 89 50 30          	mov    %rdx,0x30(%rax)
  403a53:	48 8b 45 d8          	mov    -0x28(%rbp),%rax
  403a57:	48 8d 50 28          	lea    0x28(%rax),%rdx
  403a5b:	48 8b 45 f8          	mov    -0x8(%rbp),%rax
  403a5f:	48 83 c0 20          	add    $0x20,%rax
  403a63:	48 89 d6             	mov    %rdx,%rsi
  403a66:	48 89 c7             	mov    %rax,%rdi
  403a69:	e8 e2 d5 ff ff       	callq  401050 <strcpy@plt>
  403a6e:	48 8b 45 f8          	mov    -0x8(%rbp),%rax
  403a72:	c9                   	leaveq 
  403a73:	c3                   	retq   

0000000000403a74 <add_rt_entry>:
  403a74:	55                   	push   %rbp
  403a75:	48 89 e5             	mov    %rsp,%rbp
  403a78:	48 83 ec 08          	sub    $0x8,%rsp
  403a7c:	48 89 7d f8          	mov    %rdi,-0x8(%rbp)
  403a80:	48 8b 45 f8          	mov    -0x8(%rbp),%rax
  403a84:	be e0 66 60 00       	mov    $0x6066e0,%esi
  403a89:	48 89 c7             	mov    %rax,%rdi
  403a8c:	e8 e4 fe ff ff       	callq  403975 <list_add_tail>
  403a91:	90                   	nop
  403a92:	c9                   	leaveq 
  403a93:	c3                   	retq   

0000000000403a94 <remove_rt_entry>:
  403a94:	55                   	push   %rbp
  403a95:	48 89 e5             	mov    %rsp,%rbp
  403a98:	48 83 ec 10          	sub    $0x10,%rsp
  403a9c:	48 89 7d f8          	mov    %rdi,-0x8(%rbp)
  403aa0:	48 8b 45 f8          	mov    -0x8(%rbp),%rax
  403aa4:	48 89 c7             	mov    %rax,%rdi
  403aa7:	e8 f7 fe ff ff       	callq  4039a3 <list_delete_entry>
  403aac:	48 8b 45 f8          	mov    -0x8(%rbp),%rax
  403ab0:	48 89 c7             	mov    %rax,%rdi
  403ab3:	e8 58 d5 ff ff       	callq  401010 <free@plt>
  403ab8:	90                   	nop
  403ab9:	c9                   	leaveq 
  403aba:	c3                   	retq   

0000000000403abb <clear_rtable>:
  403abb:	55                   	push   %rbp
  403abc:	48 89 e5             	mov    %rsp,%rbp
  403abf:	48 83 ec 20          	sub    $0x20,%rsp
  403ac3:	48 c7 45 e8 e0 66 60 	movq   $0x6066e0,-0x18(%rbp)
  403aca:	00 
  403acb:	eb 2b                	jmp    403af8 <clear_rtable+0x3d>
  403acd:	48 8b 45 e8          	mov    -0x18(%rbp),%rax
  403ad1:	48 8b 00             	mov    (%rax),%rax
  403ad4:	48 89 45 f0          	mov    %rax,-0x10(%rbp)
  403ad8:	48 8b 45 f0          	mov    -0x10(%rbp),%rax
  403adc:	48 89 c7             	mov    %rax,%rdi
  403adf:	e8 bf fe ff ff       	callq  4039a3 <list_delete_entry>
  403ae4:	48 8b 45 f0          	mov    -0x10(%rbp),%rax
  403ae8:	48 89 45 f8          	mov    %rax,-0x8(%rbp)
  403aec:	48 8b 45 f8          	mov    -0x8(%rbp),%rax
  403af0:	48 89 c7             	mov    %rax,%rdi
  403af3:	e8 18 d5 ff ff       	callq  401010 <free@plt>
  403af8:	48 8b 45 e8          	mov    -0x18(%rbp),%rax
  403afc:	48 8b 00             	mov    (%rax),%rax
  403aff:	48 3b 45 e8          	cmp    -0x18(%rbp),%rax
  403b03:	75 c8                	jne    403acd <clear_rtable+0x12>
  403b05:	90                   	nop
  403b06:	c9                   	leaveq 
  403b07:	c3                   	retq   

0000000000403b08 <print_rtable>:
  403b08:	55                   	push   %rbp
  403b09:	48 89 e5             	mov    %rsp,%rbp
  403b0c:	41 57                	push   %r15
  403b0e:	41 56                	push   %r14
  403b10:	41 55                	push   %r13
  403b12:	41 54                	push   %r12
  403b14:	53                   	push   %rbx
  403b15:	48 83 ec 18          	sub    $0x18,%rsp
  403b19:	48 8b 05 20 27 20 00 	mov    0x202720(%rip),%rax        # 606240 <__TMC_END__>
  403b20:	48 89 c1             	mov    %rax,%rcx
  403b23:	ba 0f 00 00 00       	mov    $0xf,%edx
  403b28:	be 01 00 00 00       	mov    $0x1,%esi
  403b2d:	bf 90 48 40 00       	mov    $0x404890,%edi
  403b32:	e8 49 d7 ff ff       	callq  401280 <fwrite@plt>
  403b37:	48 8b 05 02 27 20 00 	mov    0x202702(%rip),%rax        # 606240 <__TMC_END__>
  403b3e:	48 89 c1             	mov    %rax,%rcx
  403b41:	ba 1a 00 00 00       	mov    $0x1a,%edx
  403b46:	be 01 00 00 00       	mov    $0x1,%esi
  403b4b:	bf a0 48 40 00       	mov    $0x4048a0,%edi
  403b50:	e8 2b d7 ff ff       	callq  401280 <fwrite@plt>
  403b55:	48 8b 05 e4 26 20 00 	mov    0x2026e4(%rip),%rax        # 606240 <__TMC_END__>
  403b5c:	48 89 c1             	mov    %rax,%rcx
  403b5f:	ba 27 00 00 00       	mov    $0x27,%edx
  403b64:	be 01 00 00 00       	mov    $0x1,%esi
  403b69:	bf c0 48 40 00       	mov    $0x4048c0,%edi
  403b6e:	e8 0d d7 ff ff       	callq  401280 <fwrite@plt>
  403b73:	48 c7 45 c8 00 00 00 	movq   $0x0,-0x38(%rbp)
  403b7a:	00 
  403b7b:	48 8b 05 5e 2b 20 00 	mov    0x202b5e(%rip),%rax        # 6066e0 <rtable>
  403b82:	48 89 45 c8          	mov    %rax,-0x38(%rbp)
  403b86:	e9 1c 01 00 00       	jmpq   403ca7 <print_rtable+0x19f>
  403b8b:	48 8b 45 c8          	mov    -0x38(%rbp),%rax
  403b8f:	4c 8d 78 20          	lea    0x20(%rax),%r15
  403b93:	48 8b 45 c8          	mov    -0x38(%rbp),%rax
  403b97:	48 83 c0 18          	add    $0x18,%rax
  403b9b:	0f b6 00             	movzbl (%rax),%eax
  403b9e:	44 0f b6 e0          	movzbl %al,%r12d
  403ba2:	48 8b 45 c8          	mov    -0x38(%rbp),%rax
  403ba6:	48 83 c0 18          	add    $0x18,%rax
  403baa:	48 83 c0 01          	add    $0x1,%rax
  403bae:	0f b6 00             	movzbl (%rax),%eax
  403bb1:	0f b6 d8             	movzbl %al,%ebx
  403bb4:	48 8b 45 c8          	mov    -0x38(%rbp),%rax
  403bb8:	48 83 c0 18          	add    $0x18,%rax
  403bbc:	48 83 c0 02          	add    $0x2,%rax
  403bc0:	0f b6 00             	movzbl (%rax),%eax
  403bc3:	44 0f b6 d8          	movzbl %al,%r11d
  403bc7:	48 8b 45 c8          	mov    -0x38(%rbp),%rax
  403bcb:	48 83 c0 18          	add    $0x18,%rax
  403bcf:	48 83 c0 03          	add    $0x3,%rax
  403bd3:	0f b6 00             	movzbl (%rax),%eax
  403bd6:	44 0f b6 d0          	movzbl %al,%r10d
  403bda:	48 8b 45 c8          	mov    -0x38(%rbp),%rax
  403bde:	48 83 c0 14          	add    $0x14,%rax
  403be2:	0f b6 00             	movzbl (%rax),%eax
  403be5:	44 0f b6 c8          	movzbl %al,%r9d
  403be9:	48 8b 45 c8          	mov    -0x38(%rbp),%rax
  403bed:	48 83 c0 14          	add    $0x14,%rax
  403bf1:	48 83 c0 01          	add    $0x1,%rax
  403bf5:	0f b6 00             	movzbl (%rax),%eax
  403bf8:	44 0f b6 c0          	movzbl %al,%r8d
  403bfc:	48 8b 45 c8          	mov    -0x38(%rbp),%rax
  403c00:	48 83 c0 14          	add    $0x14,%rax
  403c04:	48 83 c0 02          	add    $0x2,%rax
  403c08:	0f b6 00             	movzbl (%rax),%eax
  403c0b:	0f b6 f8             	movzbl %al,%edi
  403c0e:	48 8b 45 c8          	mov    -0x38(%rbp),%rax
  403c12:	48 83 c0 14          	add    $0x14,%rax
  403c16:	48 83 c0 03          	add    $0x3,%rax
  403c1a:	0f b6 00             	movzbl (%rax),%eax
  403c1d:	0f b6 f0             	movzbl %al,%esi
  403c20:	48 8b 45 c8          	mov    -0x38(%rbp),%rax
  403c24:	48 83 c0 10          	add    $0x10,%rax
  403c28:	0f b6 00             	movzbl (%rax),%eax
  403c2b:	44 0f b6 f0          	movzbl %al,%r14d
  403c2f:	48 8b 45 c8          	mov    -0x38(%rbp),%rax
  403c33:	48 83 c0 10          	add    $0x10,%rax
  403c37:	48 83 c0 01          	add    $0x1,%rax
  403c3b:	0f b6 00             	movzbl (%rax),%eax
  403c3e:	44 0f b6 e8          	movzbl %al,%r13d
  403c42:	48 8b 45 c8          	mov    -0x38(%rbp),%rax
  403c46:	48 83 c0 10          	add    $0x10,%rax
  403c4a:	48 83 c0 02          	add    $0x2,%rax
  403c4e:	0f b6 00             	movzbl (%rax),%eax
  403c51:	0f b6 c8             	movzbl %al,%ecx
  403c54:	48 8b 45 c8          	mov    -0x38(%rbp),%rax
  403c58:	48 83 c0 10          	add    $0x10,%rax
  403c5c:	48 83 c0 03          	add    $0x3,%rax
  403c60:	0f b6 00             	movzbl (%rax),%eax
  403c63:	0f b6 d0             	movzbl %al,%edx
  403c66:	48 8b 05 d3 25 20 00 	mov    0x2025d3(%rip),%rax        # 606240 <__TMC_END__>
  403c6d:	48 83 ec 08          	sub    $0x8,%rsp
  403c71:	41 57                	push   %r15
  403c73:	41 54                	push   %r12
  403c75:	53                   	push   %rbx
  403c76:	41 53                	push   %r11
  403c78:	41 52                	push   %r10
  403c7a:	41 51                	push   %r9
  403c7c:	41 50                	push   %r8
  403c7e:	57                   	push   %rdi
  403c7f:	56                   	push   %rsi
  403c80:	45 89 f1             	mov    %r14d,%r9d
  403c83:	45 89 e8             	mov    %r13d,%r8d
  403c86:	be e8 48 40 00       	mov    $0x4048e8,%esi
  403c8b:	48 89 c7             	mov    %rax,%rdi
  403c8e:	b8 00 00 00 00       	mov    $0x0,%eax
  403c93:	e8 f8 d4 ff ff       	callq  401190 <fprintf@plt>
  403c98:	48 83 c4 50          	add    $0x50,%rsp
  403c9c:	48 8b 45 c8          	mov    -0x38(%rbp),%rax
  403ca0:	48 8b 00             	mov    (%rax),%rax
  403ca3:	48 89 45 c8          	mov    %rax,-0x38(%rbp)
  403ca7:	48 8b 45 c8          	mov    -0x38(%rbp),%rax
  403cab:	48 3d e0 66 60 00    	cmp    $0x6066e0,%rax
  403cb1:	0f 85 d4 fe ff ff    	jne    403b8b <print_rtable+0x83>
  403cb7:	48 8b 05 82 25 20 00 	mov    0x202582(%rip),%rax        # 606240 <__TMC_END__>
  403cbe:	48 89 c1             	mov    %rax,%rcx
  403cc1:	ba 27 00 00 00       	mov    $0x27,%edx
  403cc6:	be 01 00 00 00       	mov    $0x1,%esi
  403ccb:	bf c0 48 40 00       	mov    $0x4048c0,%edi
  403cd0:	e8 ab d5 ff ff       	callq  401280 <fwrite@plt>
  403cd5:	90                   	nop
  403cd6:	48 8d 65 d8          	lea    -0x28(%rbp),%rsp
  403cda:	5b                   	pop    %rbx
  403cdb:	41 5c                	pop    %r12
  403cdd:	41 5d                	pop    %r13
  403cdf:	41 5e                	pop    %r14
  403ce1:	41 5f                	pop    %r15
  403ce3:	5d                   	pop    %rbp
  403ce4:	c3                   	retq   

0000000000403ce5 <init_list_head>:
  403ce5:	55                   	push   %rbp
  403ce6:	48 89 e5             	mov    %rsp,%rbp
  403ce9:	48 89 7d f8          	mov    %rdi,-0x8(%rbp)
  403ced:	48 8b 45 f8          	mov    -0x8(%rbp),%rax
  403cf1:	48 8b 55 f8          	mov    -0x8(%rbp),%rdx
  403cf5:	48 89 50 08          	mov    %rdx,0x8(%rax)
  403cf9:	48 8b 45 f8          	mov    -0x8(%rbp),%rax
  403cfd:	48 8b 50 08          	mov    0x8(%rax),%rdx
  403d01:	48 8b 45 f8          	mov    -0x8(%rbp),%rax
  403d05:	48 89 10             	mov    %rdx,(%rax)
  403d08:	90                   	nop
  403d09:	5d                   	pop    %rbp
  403d0a:	c3                   	retq   

0000000000403d0b <if_index_to_name>:
  403d0b:	55                   	push   %rbp
  403d0c:	48 89 e5             	mov    %rsp,%rbp
  403d0f:	48 83 ec 50          	sub    $0x50,%rsp
  403d13:	89 7d bc             	mov    %edi,-0x44(%rbp)
  403d16:	48 89 75 b0          	mov    %rsi,-0x50(%rbp)
  403d1a:	64 48 8b 04 25 28 00 	mov    %fs:0x28,%rax
  403d21:	00 00 
  403d23:	48 89 45 f8          	mov    %rax,-0x8(%rbp)
  403d27:	31 c0                	xor    %eax,%eax
  403d29:	ba 00 00 00 00       	mov    $0x0,%edx
  403d2e:	be 02 00 00 00       	mov    $0x2,%esi
  403d33:	bf 02 00 00 00       	mov    $0x2,%edi
  403d38:	e8 c3 d5 ff ff       	callq  401300 <socket@plt>
  403d3d:	89 45 cc             	mov    %eax,-0x34(%rbp)
  403d40:	83 7d cc ff          	cmpl   $0xffffffff,-0x34(%rbp)
  403d44:	75 14                	jne    403d5a <if_index_to_name+0x4f>
  403d46:	bf 28 49 40 00       	mov    $0x404928,%edi
  403d4b:	e8 f0 d4 ff ff       	callq  401240 <perror@plt>
  403d50:	bf ff ff ff ff       	mov    $0xffffffff,%edi
  403d55:	e8 16 d5 ff ff       	callq  401270 <exit@plt>
  403d5a:	8b 45 bc             	mov    -0x44(%rbp),%eax
  403d5d:	89 45 e0             	mov    %eax,-0x20(%rbp)
  403d60:	48 8d 55 d0          	lea    -0x30(%rbp),%rdx
  403d64:	8b 45 cc             	mov    -0x34(%rbp),%eax
  403d67:	b9 28 00 00 00       	mov    $0x28,%ecx
  403d6c:	be 10 89 00 00       	mov    $0x8910,%esi
  403d71:	89 c7                	mov    %eax,%edi
  403d73:	b8 00 00 00 00       	mov    $0x0,%eax
  403d78:	e8 b3 d3 ff ff       	callq  401130 <ioctl@plt>
  403d7d:	85 c0                	test   %eax,%eax
  403d7f:	74 14                	je     403d95 <if_index_to_name+0x8a>
  403d81:	bf 3e 49 40 00       	mov    $0x40493e,%edi
  403d86:	e8 b5 d4 ff ff       	callq  401240 <perror@plt>
  403d8b:	bf ff ff ff ff       	mov    $0xffffffff,%edi
  403d90:	e8 db d4 ff ff       	callq  401270 <exit@plt>
  403d95:	48 8d 55 d0          	lea    -0x30(%rbp),%rdx
  403d99:	48 8b 45 b0          	mov    -0x50(%rbp),%rax
  403d9d:	48 89 d6             	mov    %rdx,%rsi
  403da0:	48 89 c7             	mov    %rax,%rdi
  403da3:	e8 a8 d2 ff ff       	callq  401050 <strcpy@plt>
  403da8:	90                   	nop
  403da9:	48 8b 45 f8          	mov    -0x8(%rbp),%rax
  403dad:	64 48 33 04 25 28 00 	xor    %fs:0x28,%rax
  403db4:	00 00 
  403db6:	74 05                	je     403dbd <if_index_to_name+0xb2>
  403db8:	e8 e3 d2 ff ff       	callq  4010a0 <__stack_chk_fail@plt>
  403dbd:	c9                   	leaveq 
  403dbe:	c3                   	retq   

0000000000403dbf <if_name_to_iface>:
  403dbf:	55                   	push   %rbp
  403dc0:	48 89 e5             	mov    %rsp,%rbp
  403dc3:	48 83 ec 20          	sub    $0x20,%rsp
  403dc7:	48 89 7d e8          	mov    %rdi,-0x18(%rbp)
  403dcb:	48 c7 45 f8 00 00 00 	movq   $0x0,-0x8(%rbp)
  403dd2:	00 
  403dd3:	48 8b 05 f6 28 20 00 	mov    0x2028f6(%rip),%rax        # 6066d0 <instance>
  403dda:	48 8b 00             	mov    (%rax),%rax
  403ddd:	48 89 45 f8          	mov    %rax,-0x8(%rbp)
  403de1:	eb 2c                	jmp    403e0f <if_name_to_iface+0x50>
  403de3:	48 8b 45 f8          	mov    -0x8(%rbp),%rax
  403de7:	48 8d 50 28          	lea    0x28(%rax),%rdx
  403deb:	48 8b 45 e8          	mov    -0x18(%rbp),%rax
  403def:	48 89 c6             	mov    %rax,%rsi
  403df2:	48 89 d7             	mov    %rdx,%rdi
  403df5:	e8 86 d3 ff ff       	callq  401180 <strcmp@plt>
  403dfa:	85 c0                	test   %eax,%eax
  403dfc:	75 06                	jne    403e04 <if_name_to_iface+0x45>
  403dfe:	48 8b 45 f8          	mov    -0x8(%rbp),%rax
  403e02:	eb 3a                	jmp    403e3e <if_name_to_iface+0x7f>
  403e04:	48 8b 45 f8          	mov    -0x8(%rbp),%rax
  403e08:	48 8b 00             	mov    (%rax),%rax
  403e0b:	48 89 45 f8          	mov    %rax,-0x8(%rbp)
  403e0f:	48 8b 05 ba 28 20 00 	mov    0x2028ba(%rip),%rax        # 6066d0 <instance>
  403e16:	48 39 45 f8          	cmp    %rax,-0x8(%rbp)
  403e1a:	75 c7                	jne    403de3 <if_name_to_iface+0x24>
  403e1c:	48 8b 05 3d 24 20 00 	mov    0x20243d(%rip),%rax        # 606260 <stderr@@GLIBC_2.2.5>
  403e23:	48 8b 55 e8          	mov    -0x18(%rbp),%rdx
  403e27:	be 60 49 40 00       	mov    $0x404960,%esi
  403e2c:	48 89 c7             	mov    %rax,%rdi
  403e2f:	b8 00 00 00 00       	mov    $0x0,%eax
  403e34:	e8 57 d3 ff ff       	callq  401190 <fprintf@plt>
  403e39:	b8 00 00 00 00       	mov    $0x0,%eax
  403e3e:	c9                   	leaveq 
  403e3f:	c3                   	retq   

0000000000403e40 <get_unparsed_route_info>:
  403e40:	55                   	push   %rbp
  403e41:	48 89 e5             	mov    %rsp,%rbp
  403e44:	48 83 ec 30          	sub    $0x30,%rsp
  403e48:	48 89 7d d8          	mov    %rdi,-0x28(%rbp)
  403e4c:	89 75 d4             	mov    %esi,-0x2c(%rbp)
  403e4f:	ba 00 00 00 00       	mov    $0x0,%edx
  403e54:	be 03 00 00 00       	mov    $0x3,%esi
  403e59:	bf 10 00 00 00       	mov    $0x10,%edi
  403e5e:	e8 9d d4 ff ff       	callq  401300 <socket@plt>
  403e63:	89 45 e8             	mov    %eax,-0x18(%rbp)
  403e66:	bf 1c 28 00 00       	mov    $0x281c,%edi
  403e6b:	e8 60 d3 ff ff       	callq  4011d0 <malloc@plt>
  403e70:	48 89 45 f0          	mov    %rax,-0x10(%rbp)
  403e74:	48 8b 45 f0          	mov    -0x10(%rbp),%rax
  403e78:	be 1c 28 00 00       	mov    $0x281c,%esi
  403e7d:	48 89 c7             	mov    %rax,%rdi
  403e80:	e8 cb d3 ff ff       	callq  401250 <bzero@plt>
  403e85:	48 8b 45 f0          	mov    -0x10(%rbp),%rax
  403e89:	c7 00 1c 00 00 00    	movl   $0x1c,(%rax)
  403e8f:	48 8b 45 f0          	mov    -0x10(%rbp),%rax
  403e93:	66 c7 40 04 1a 00    	movw   $0x1a,0x4(%rax)
  403e99:	48 8b 45 f0          	mov    -0x10(%rbp),%rax
  403e9d:	66 c7 40 06 01 03    	movw   $0x301,0x6(%rax)
  403ea3:	48 8b 45 f0          	mov    -0x10(%rbp),%rax
  403ea7:	c6 40 10 02          	movb   $0x2,0x10(%rax)
  403eab:	48 8b 45 f0          	mov    -0x10(%rbp),%rax
  403eaf:	c6 40 14 fe          	movb   $0xfe,0x14(%rax)
  403eb3:	48 8b 75 f0          	mov    -0x10(%rbp),%rsi
  403eb7:	8b 45 e8             	mov    -0x18(%rbp),%eax
  403eba:	b9 00 00 00 00       	mov    $0x0,%ecx
  403ebf:	ba 1c 28 00 00       	mov    $0x281c,%edx
  403ec4:	89 c7                	mov    %eax,%edi
  403ec6:	e8 05 d2 ff ff       	callq  4010d0 <send@plt>
  403ecb:	48 85 c0             	test   %rax,%rax
  403ece:	79 14                	jns    403ee4 <get_unparsed_route_info+0xa4>
  403ed0:	bf a0 49 40 00       	mov    $0x4049a0,%edi
  403ed5:	e8 66 d3 ff ff       	callq  401240 <perror@plt>
  403eda:	bf ff ff ff ff       	mov    $0xffffffff,%edi
  403edf:	e8 8c d3 ff ff       	callq  401270 <exit@plt>
  403ee4:	c7 45 e0 00 00 00 00 	movl   $0x0,-0x20(%rbp)
  403eeb:	8b 45 d4             	mov    -0x2c(%rbp),%eax
  403eee:	89 45 e4             	mov    %eax,-0x1c(%rbp)
  403ef1:	8b 45 e4             	mov    -0x1c(%rbp),%eax
  403ef4:	83 f8 0f             	cmp    $0xf,%eax
  403ef7:	77 26                	ja     403f1f <get_unparsed_route_info+0xdf>
  403ef9:	48 8b 05 60 23 20 00 	mov    0x202360(%rip),%rax        # 606260 <stderr@@GLIBC_2.2.5>
  403f00:	8b 55 d4             	mov    -0x2c(%rbp),%edx
  403f03:	be c0 49 40 00       	mov    $0x4049c0,%esi
  403f08:	48 89 c7             	mov    %rax,%rdi
  403f0b:	b8 00 00 00 00       	mov    $0x0,%eax
  403f10:	e8 7b d2 ff ff       	callq  401190 <fprintf@plt>
  403f15:	bf ff ff ff ff       	mov    $0xffffffff,%edi
  403f1a:	e8 51 d3 ff ff       	callq  401270 <exit@plt>
  403f1f:	8b 45 e4             	mov    -0x1c(%rbp),%eax
  403f22:	48 63 d0             	movslq %eax,%rdx
  403f25:	8b 45 e0             	mov    -0x20(%rbp),%eax
  403f28:	48 63 c8             	movslq %eax,%rcx
  403f2b:	48 8b 45 d8          	mov    -0x28(%rbp),%rax
  403f2f:	48 8d 34 01          	lea    (%rcx,%rax,1),%rsi
  403f33:	8b 45 e8             	mov    -0x18(%rbp),%eax
  403f36:	b9 00 00 00 00       	mov    $0x0,%ecx
  403f3b:	89 c7                	mov    %eax,%edi
  403f3d:	e8 de d0 ff ff       	callq  401020 <recv@plt>
  403f42:	89 45 ec             	mov    %eax,-0x14(%rbp)
  403f45:	83 7d ec 00          	cmpl   $0x0,-0x14(%rbp)
  403f49:	79 23                	jns    403f6e <get_unparsed_route_info+0x12e>
  403f4b:	48 8b 05 0e 23 20 00 	mov    0x20230e(%rip),%rax        # 606260 <stderr@@GLIBC_2.2.5>
  403f52:	48 89 c1             	mov    %rax,%rcx
  403f55:	ba 1d 00 00 00       	mov    $0x1d,%edx
  403f5a:	be 01 00 00 00       	mov    $0x1,%esi
  403f5f:	bf e2 49 40 00       	mov    $0x4049e2,%edi
  403f64:	e8 17 d3 ff ff       	callq  401280 <fwrite@plt>
  403f69:	e9 8d 00 00 00       	jmpq   403ffb <get_unparsed_route_info+0x1bb>
  403f6e:	83 7d ec 00          	cmpl   $0x0,-0x14(%rbp)
  403f72:	75 20                	jne    403f94 <get_unparsed_route_info+0x154>
  403f74:	48 8b 05 c5 22 20 00 	mov    0x2022c5(%rip),%rax        # 606240 <__TMC_END__>
  403f7b:	48 89 c1             	mov    %rax,%rcx
  403f7e:	ba 0f 00 00 00       	mov    $0xf,%edx
  403f83:	be 01 00 00 00       	mov    $0x1,%esi
  403f88:	bf 00 4a 40 00       	mov    $0x404a00,%edi
  403f8d:	e8 ee d2 ff ff       	callq  401280 <fwrite@plt>
  403f92:	eb 67                	jmp    403ffb <get_unparsed_route_info+0x1bb>
  403f94:	8b 45 e0             	mov    -0x20(%rbp),%eax
  403f97:	48 63 d0             	movslq %eax,%rdx
  403f9a:	48 8b 45 d8          	mov    -0x28(%rbp),%rax
  403f9e:	48 01 d0             	add    %rdx,%rax
  403fa1:	48 89 45 f8          	mov    %rax,-0x8(%rbp)
  403fa5:	48 8b 45 f8          	mov    -0x8(%rbp),%rax
  403fa9:	0f b7 40 04          	movzwl 0x4(%rax),%eax
  403fad:	66 83 f8 03          	cmp    $0x3,%ax
  403fb1:	74 47                	je     403ffa <get_unparsed_route_info+0x1ba>
  403fb3:	48 8b 45 f8          	mov    -0x8(%rbp),%rax
  403fb7:	0f b7 40 04          	movzwl 0x4(%rax),%eax
  403fbb:	66 83 f8 02          	cmp    $0x2,%ax
  403fbf:	75 28                	jne    403fe9 <get_unparsed_route_info+0x1a9>
  403fc1:	48 8b 05 98 22 20 00 	mov    0x202298(%rip),%rax        # 606260 <stderr@@GLIBC_2.2.5>
  403fc8:	48 89 c1             	mov    %rax,%rcx
  403fcb:	ba 1d 00 00 00       	mov    $0x1d,%edx
  403fd0:	be 01 00 00 00       	mov    $0x1,%esi
  403fd5:	bf 10 4a 40 00       	mov    $0x404a10,%edi
  403fda:	e8 a1 d2 ff ff       	callq  401280 <fwrite@plt>
  403fdf:	bf ff ff ff ff       	mov    $0xffffffff,%edi
  403fe4:	e8 87 d2 ff ff       	callq  401270 <exit@plt>
  403fe9:	8b 45 ec             	mov    -0x14(%rbp),%eax
  403fec:	01 45 e0             	add    %eax,-0x20(%rbp)
  403fef:	8b 45 ec             	mov    -0x14(%rbp),%eax
  403ff2:	29 45 e4             	sub    %eax,-0x1c(%rbp)
  403ff5:	e9 f7 fe ff ff       	jmpq   403ef1 <get_unparsed_route_info+0xb1>
  403ffa:	90                   	nop
  403ffb:	8b 45 e8             	mov    -0x18(%rbp),%eax
  403ffe:	89 c7                	mov    %eax,%edi
  404000:	e8 4b d1 ff ff       	callq  401150 <close@plt>
  404005:	8b 45 e0             	mov    -0x20(%rbp),%eax
  404008:	c9                   	leaveq 
  404009:	c3                   	retq   

000000000040400a <parse_routing_info>:
  40400a:	55                   	push   %rbp
  40400b:	48 89 e5             	mov    %rsp,%rbp
  40400e:	48 83 ec 70          	sub    $0x70,%rsp
  404012:	48 89 7d 98          	mov    %rdi,-0x68(%rbp)
  404016:	89 75 94             	mov    %esi,-0x6c(%rbp)
  404019:	64 48 8b 04 25 28 00 	mov    %fs:0x28,%rax
  404020:	00 00 
  404022:	48 89 45 f8          	mov    %rax,-0x8(%rbp)
  404026:	31 c0                	xor    %eax,%eax
  404028:	c7 45 a0 00 00 00 00 	movl   $0x0,-0x60(%rbp)
  40402f:	bf e0 66 60 00       	mov    $0x6066e0,%edi
  404034:	e8 ac fc ff ff       	callq  403ce5 <init_list_head>
  404039:	48 8b 45 98          	mov    -0x68(%rbp),%rax
  40403d:	48 89 45 b8          	mov    %rax,-0x48(%rbp)
  404041:	e9 b0 01 00 00       	jmpq   4041f6 <parse_routing_info+0x1ec>
  404046:	48 8b 45 b8          	mov    -0x48(%rbp),%rax
  40404a:	48 83 c0 10          	add    $0x10,%rax
  40404e:	48 89 45 c8          	mov    %rax,-0x38(%rbp)
  404052:	48 8b 45 c8          	mov    -0x38(%rbp),%rax
  404056:	0f b6 40 04          	movzbl 0x4(%rax),%eax
  40405a:	3c fe                	cmp    $0xfe,%al
  40405c:	0f 85 6b 01 00 00    	jne    4041cd <parse_routing_info+0x1c3>
  404062:	c7 45 ac 00 00 00 00 	movl   $0x0,-0x54(%rbp)
  404069:	c7 45 b0 00 00 00 00 	movl   $0x0,-0x50(%rbp)
  404070:	48 8b 45 c8          	mov    -0x38(%rbp),%rax
  404074:	48 83 c0 0c          	add    $0xc,%rax
  404078:	48 89 45 c0          	mov    %rax,-0x40(%rbp)
  40407c:	48 8b 45 b8          	mov    -0x48(%rbp),%rax
  404080:	8b 00                	mov    (%rax),%eax
  404082:	83 e8 1c             	sub    $0x1c,%eax
  404085:	89 45 b4             	mov    %eax,-0x4c(%rbp)
  404088:	e9 c1 00 00 00       	jmpq   40414e <parse_routing_info+0x144>
  40408d:	48 8b 45 c0          	mov    -0x40(%rbp),%rax
  404091:	0f b7 40 02          	movzwl 0x2(%rax),%eax
  404095:	0f b7 c0             	movzwl %ax,%eax
  404098:	83 f8 04             	cmp    $0x4,%eax
  40409b:	74 66                	je     404103 <parse_routing_info+0xf9>
  40409d:	83 f8 04             	cmp    $0x4,%eax
  4040a0:	7f 07                	jg     4040a9 <parse_routing_info+0x9f>
  4040a2:	83 f8 01             	cmp    $0x1,%eax
  4040a5:	74 0e                	je     4040b5 <parse_routing_info+0xab>
  4040a7:	eb 75                	jmp    40411e <parse_routing_info+0x114>
  4040a9:	83 f8 05             	cmp    $0x5,%eax
  4040ac:	74 3f                	je     4040ed <parse_routing_info+0xe3>
  4040ae:	83 f8 07             	cmp    $0x7,%eax
  4040b1:	74 6a                	je     40411d <parse_routing_info+0x113>
  4040b3:	eb 69                	jmp    40411e <parse_routing_info+0x114>
  4040b5:	48 8b 45 c0          	mov    -0x40(%rbp),%rax
  4040b9:	48 83 c0 04          	add    $0x4,%rax
  4040bd:	8b 00                	mov    (%rax),%eax
  4040bf:	89 c7                	mov    %eax,%edi
  4040c1:	e8 ca d1 ff ff       	callq  401290 <ntohl@plt>
  4040c6:	89 45 a4             	mov    %eax,-0x5c(%rbp)
  4040c9:	48 8b 45 c8          	mov    -0x38(%rbp),%rax
  4040cd:	0f b6 40 01          	movzbl 0x1(%rax),%eax
  4040d1:	0f b6 c0             	movzbl %al,%eax
  4040d4:	ba 20 00 00 00       	mov    $0x20,%edx
  4040d9:	29 c2                	sub    %eax,%edx
  4040db:	89 d0                	mov    %edx,%eax
  4040dd:	ba ff ff ff ff       	mov    $0xffffffff,%edx
  4040e2:	89 c1                	mov    %eax,%ecx
  4040e4:	d3 e2                	shl    %cl,%edx
  4040e6:	89 d0                	mov    %edx,%eax
  4040e8:	89 45 a8             	mov    %eax,-0x58(%rbp)
  4040eb:	eb 31                	jmp    40411e <parse_routing_info+0x114>
  4040ed:	48 8b 45 c0          	mov    -0x40(%rbp),%rax
  4040f1:	48 83 c0 04          	add    $0x4,%rax
  4040f5:	8b 00                	mov    (%rax),%eax
  4040f7:	89 c7                	mov    %eax,%edi
  4040f9:	e8 92 d1 ff ff       	callq  401290 <ntohl@plt>
  4040fe:	89 45 ac             	mov    %eax,-0x54(%rbp)
  404101:	eb 1b                	jmp    40411e <parse_routing_info+0x114>
  404103:	48 8b 45 c0          	mov    -0x40(%rbp),%rax
  404107:	48 83 c0 04          	add    $0x4,%rax
  40410b:	8b 00                	mov    (%rax),%eax
  40410d:	48 8d 55 e0          	lea    -0x20(%rbp),%rdx
  404111:	48 89 d6             	mov    %rdx,%rsi
  404114:	89 c7                	mov    %eax,%edi
  404116:	e8 f0 fb ff ff       	callq  403d0b <if_index_to_name>
  40411b:	eb 01                	jmp    40411e <parse_routing_info+0x114>
  40411d:	90                   	nop
  40411e:	8b 55 b4             	mov    -0x4c(%rbp),%edx
  404121:	48 8b 45 c0          	mov    -0x40(%rbp),%rax
  404125:	0f b7 00             	movzwl (%rax),%eax
  404128:	0f b7 c0             	movzwl %ax,%eax
  40412b:	83 c0 03             	add    $0x3,%eax
  40412e:	83 e0 fc             	and    $0xfffffffc,%eax
  404131:	29 c2                	sub    %eax,%edx
  404133:	89 d0                	mov    %edx,%eax
  404135:	89 45 b4             	mov    %eax,-0x4c(%rbp)
  404138:	48 8b 45 c0          	mov    -0x40(%rbp),%rax
  40413c:	0f b7 00             	movzwl (%rax),%eax
  40413f:	0f b7 c0             	movzwl %ax,%eax
  404142:	83 c0 03             	add    $0x3,%eax
  404145:	89 c0                	mov    %eax,%eax
  404147:	83 e0 fc             	and    $0xfffffffc,%eax
  40414a:	48 01 45 c0          	add    %rax,-0x40(%rbp)
  40414e:	83 7d b4 03          	cmpl   $0x3,-0x4c(%rbp)
  404152:	7e 20                	jle    404174 <parse_routing_info+0x16a>
  404154:	48 8b 45 c0          	mov    -0x40(%rbp),%rax
  404158:	0f b7 00             	movzwl (%rax),%eax
  40415b:	66 83 f8 03          	cmp    $0x3,%ax
  40415f:	76 13                	jbe    404174 <parse_routing_info+0x16a>
  404161:	48 8b 45 c0          	mov    -0x40(%rbp),%rax
  404165:	0f b7 00             	movzwl (%rax),%eax
  404168:	0f b7 c0             	movzwl %ax,%eax
  40416b:	3b 45 b4             	cmp    -0x4c(%rbp),%eax
  40416e:	0f 8e 19 ff ff ff    	jle    40408d <parse_routing_info+0x83>
  404174:	83 4d b0 01          	orl    $0x1,-0x50(%rbp)
  404178:	83 7d ac 00          	cmpl   $0x0,-0x54(%rbp)
  40417c:	74 04                	je     404182 <parse_routing_info+0x178>
  40417e:	83 4d b0 02          	orl    $0x2,-0x50(%rbp)
  404182:	83 7d a8 ff          	cmpl   $0xffffffff,-0x58(%rbp)
  404186:	75 04                	jne    40418c <parse_routing_info+0x182>
  404188:	83 4d b0 04          	orl    $0x4,-0x50(%rbp)
  40418c:	48 8d 45 e0          	lea    -0x20(%rbp),%rax
  404190:	48 89 c7             	mov    %rax,%rdi
  404193:	e8 27 fc ff ff       	callq  403dbf <if_name_to_iface>
  404198:	48 89 45 d0          	mov    %rax,-0x30(%rbp)
  40419c:	48 83 7d d0 00       	cmpq   $0x0,-0x30(%rbp)
  4041a1:	74 2b                	je     4041ce <parse_routing_info+0x1c4>
  4041a3:	48 8b 4d d0          	mov    -0x30(%rbp),%rcx
  4041a7:	8b 55 ac             	mov    -0x54(%rbp),%edx
  4041aa:	8b 75 a8             	mov    -0x58(%rbp),%esi
  4041ad:	8b 45 a4             	mov    -0x5c(%rbp),%eax
  4041b0:	89 c7                	mov    %eax,%edi
  4041b2:	e8 2d f8 ff ff       	callq  4039e4 <new_rt_entry>
  4041b7:	48 89 45 d8          	mov    %rax,-0x28(%rbp)
  4041bb:	48 8b 45 d8          	mov    -0x28(%rbp),%rax
  4041bf:	48 89 c7             	mov    %rax,%rdi
  4041c2:	e8 ad f8 ff ff       	callq  403a74 <add_rt_entry>
  4041c7:	83 45 a0 01          	addl   $0x1,-0x60(%rbp)
  4041cb:	eb 01                	jmp    4041ce <parse_routing_info+0x1c4>
  4041cd:	90                   	nop
  4041ce:	8b 55 94             	mov    -0x6c(%rbp),%edx
  4041d1:	48 8b 45 b8          	mov    -0x48(%rbp),%rax
  4041d5:	8b 00                	mov    (%rax),%eax
  4041d7:	83 c0 03             	add    $0x3,%eax
  4041da:	83 e0 fc             	and    $0xfffffffc,%eax
  4041dd:	29 c2                	sub    %eax,%edx
  4041df:	89 d0                	mov    %edx,%eax
  4041e1:	89 45 94             	mov    %eax,-0x6c(%rbp)
  4041e4:	48 8b 45 b8          	mov    -0x48(%rbp),%rax
  4041e8:	8b 00                	mov    (%rax),%eax
  4041ea:	83 c0 03             	add    $0x3,%eax
  4041ed:	89 c0                	mov    %eax,%eax
  4041ef:	83 e0 fc             	and    $0xfffffffc,%eax
  4041f2:	48 01 45 b8          	add    %rax,-0x48(%rbp)
  4041f6:	83 7d 94 0f          	cmpl   $0xf,-0x6c(%rbp)
  4041fa:	7e 1c                	jle    404218 <parse_routing_info+0x20e>
  4041fc:	48 8b 45 b8          	mov    -0x48(%rbp),%rax
  404200:	8b 00                	mov    (%rax),%eax
  404202:	83 f8 0f             	cmp    $0xf,%eax
  404205:	76 11                	jbe    404218 <parse_routing_info+0x20e>
  404207:	48 8b 45 b8          	mov    -0x48(%rbp),%rax
  40420b:	8b 10                	mov    (%rax),%edx
  40420d:	8b 45 94             	mov    -0x6c(%rbp),%eax
  404210:	39 c2                	cmp    %eax,%edx
  404212:	0f 86 2e fe ff ff    	jbe    404046 <parse_routing_info+0x3c>
  404218:	8b 45 a0             	mov    -0x60(%rbp),%eax
  40421b:	48 8b 4d f8          	mov    -0x8(%rbp),%rcx
  40421f:	64 48 33 0c 25 28 00 	xor    %fs:0x28,%rcx
  404226:	00 00 
  404228:	74 05                	je     40422f <parse_routing_info+0x225>
  40422a:	e8 71 ce ff ff       	callq  4010a0 <__stack_chk_fail@plt>
  40422f:	c9                   	leaveq 
  404230:	c3                   	retq   

0000000000404231 <load_rtable_from_kernel>:
  404231:	55                   	push   %rbp
  404232:	48 89 e5             	mov    %rsp,%rbp
  404235:	48 81 ec 20 28 00 00 	sub    $0x2820,%rsp
  40423c:	64 48 8b 04 25 28 00 	mov    %fs:0x28,%rax
  404243:	00 00 
  404245:	48 89 45 f8          	mov    %rax,-0x8(%rbp)
  404249:	31 c0                	xor    %eax,%eax
  40424b:	48 8d 85 f0 d7 ff ff 	lea    -0x2810(%rbp),%rax
  404252:	be 00 28 00 00       	mov    $0x2800,%esi
  404257:	48 89 c7             	mov    %rax,%rdi
  40425a:	e8 e1 fb ff ff       	callq  403e40 <get_unparsed_route_info>
  40425f:	89 85 e8 d7 ff ff    	mov    %eax,-0x2818(%rbp)
  404265:	8b 95 e8 d7 ff ff    	mov    -0x2818(%rbp),%edx
  40426b:	48 8d 85 f0 d7 ff ff 	lea    -0x2810(%rbp),%rax
  404272:	89 d6                	mov    %edx,%esi
  404274:	48 89 c7             	mov    %rax,%rdi
  404277:	e8 8e fd ff ff       	callq  40400a <parse_routing_info>
  40427c:	89 85 ec d7 ff ff    	mov    %eax,-0x2814(%rbp)
  404282:	48 8b 05 b7 1f 20 00 	mov    0x201fb7(%rip),%rax        # 606240 <__TMC_END__>
  404289:	8b 95 ec d7 ff ff    	mov    -0x2814(%rbp),%edx
  40428f:	be 30 4a 40 00       	mov    $0x404a30,%esi
  404294:	48 89 c7             	mov    %rax,%rdi
  404297:	b8 00 00 00 00       	mov    $0x0,%eax
  40429c:	e8 ef ce ff ff       	callq  401190 <fprintf@plt>
  4042a1:	90                   	nop
  4042a2:	48 8b 45 f8          	mov    -0x8(%rbp),%rax
  4042a6:	64 48 33 04 25 28 00 	xor    %fs:0x28,%rax
  4042ad:	00 00 
  4042af:	74 05                	je     4042b6 <load_rtable_from_kernel+0x85>
  4042b1:	e8 ea cd ff ff       	callq  4010a0 <__stack_chk_fail@plt>
  4042b6:	c9                   	leaveq 
  4042b7:	c3                   	retq   
  4042b8:	0f 1f 84 00 00 00 00 	nopl   0x0(%rax,%rax,1)
  4042bf:	00 

00000000004042c0 <__libc_csu_init>:
  4042c0:	41 57                	push   %r15
  4042c2:	41 56                	push   %r14
  4042c4:	41 89 ff             	mov    %edi,%r15d
  4042c7:	41 55                	push   %r13
  4042c9:	41 54                	push   %r12
  4042cb:	4c 8d 25 2e 1b 20 00 	lea    0x201b2e(%rip),%r12        # 605e00 <__frame_dummy_init_array_entry>
  4042d2:	55                   	push   %rbp
  4042d3:	48 8d 2d 2e 1b 20 00 	lea    0x201b2e(%rip),%rbp        # 605e08 <__init_array_end>
  4042da:	53                   	push   %rbx
  4042db:	49 89 f6             	mov    %rsi,%r14
  4042de:	49 89 d5             	mov    %rdx,%r13
  4042e1:	4c 29 e5             	sub    %r12,%rbp
  4042e4:	48 83 ec 08          	sub    $0x8,%rsp
  4042e8:	48 c1 fd 03          	sar    $0x3,%rbp
  4042ec:	e8 e7 cc ff ff       	callq  400fd8 <_init>
  4042f1:	48 85 ed             	test   %rbp,%rbp
  4042f4:	74 20                	je     404316 <__libc_csu_init+0x56>
  4042f6:	31 db                	xor    %ebx,%ebx
  4042f8:	0f 1f 84 00 00 00 00 	nopl   0x0(%rax,%rax,1)
  4042ff:	00 
  404300:	4c 89 ea             	mov    %r13,%rdx
  404303:	4c 89 f6             	mov    %r14,%rsi
  404306:	44 89 ff             	mov    %r15d,%edi
  404309:	41 ff 14 dc          	callq  *(%r12,%rbx,8)
  40430d:	48 83 c3 01          	add    $0x1,%rbx
  404311:	48 39 eb             	cmp    %rbp,%rbx
  404314:	75 ea                	jne    404300 <__libc_csu_init+0x40>
  404316:	48 83 c4 08          	add    $0x8,%rsp
  40431a:	5b                   	pop    %rbx
  40431b:	5d                   	pop    %rbp
  40431c:	41 5c                	pop    %r12
  40431e:	41 5d                	pop    %r13
  404320:	41 5e                	pop    %r14
  404322:	41 5f                	pop    %r15
  404324:	c3                   	retq   
  404325:	90                   	nop
  404326:	66 2e 0f 1f 84 00 00 	nopw   %cs:0x0(%rax,%rax,1)
  40432d:	00 00 00 

0000000000404330 <__libc_csu_fini>:
  404330:	f3 c3                	repz retq 

Disassembly of section .fini:

0000000000404334 <_fini>:
  404334:	48 83 ec 08          	sub    $0x8,%rsp
  404338:	48 83 c4 08          	add    $0x8,%rsp
  40433c:	c3                   	retq   
